(lp0
(dp1
S'M08_N2Ha'
p2
(lp3
F8.55
aF8.501000000000001
aF8.596
asS'E(B-V)'
p4
(lp5
F0.743
aF0.593
aF0.886
asS'SNtype'
p6
S'GRB'
p7
sS'region'
p8
S'SNsite'
p9
sS'KD02comb'
p10
(lp11
F8.485
aF8.436
aF8.552999999999999
asS'M13_O3N2'
p12
(lp13
F8.265
aF8.248000000000001
aF8.281
asS'PTFname'
p14
S'SN1998bw'
p15
sS'D13_N2S2_O3S2'
p16
(lp17
F8.32
aF8.248000000000001
aF8.386000000000001
asS'PP04_O3N2'
p18
(lp19
F8.329
aF8.304
aF8.353
asa(dp20
g2
(lp21
F7.584
aF7.374
aF7.7669999999999995
asg4
(lp22
F0.1
aF0.081
aF0.11800000000000001
asg6
g7
sg8
g9
sg10
(lp23
F8.073
aF8.055
aF8.092
asg14
S'SN2003dh'
p24
sg16
(lp25
F7.485
aF7.434
aF7.566000000000001
asg18
(lp26
F7.927
aF7.835999999999999
aF7.984
asa(dp27
g2
(lp28
F8.282
aF8.245
aF8.32
asg4
(lp29
F0.347
aF0.24899999999999997
aF0.44399999999999995
asg6
g7
sg8
g9
sg10
(lp30
F8.647
aF8.565
aF8.716000000000001
asg14
S'SN2003lw'
p31
sg18
(lp32
F8.066
aF8.05
aF8.083
asa(dp33
g2
(lp34
F8.194
aF8.183000000000002
aF8.205
asg4
(lp35
F0.0
aF0.0
aF0.007
asg6
g7
sg8
g9
sg10
(lp36
F8.125
aF8.119
aF8.132
asg14
S'SN2006aj'
p37
sg16
(lp38
F8.357
aF8.337
aF8.378
asg18
(lp39
F8.125
aF8.121
aF8.129
asa(dp40
g2
(lp41
F8.652
aF8.633999999999999
aF8.67
asg4
(lp42
F0.385
aF0.352
aF0.42000000000000004
asg6
g7
sg8
g9
sg10
(lp43
F8.545
aF8.427
aF8.602
asg12
(lp44
F8.304
aF8.298
aF8.309000000000001
asg14
S'SN2012bz'
p45
sg16
(lp46
F8.573
aF8.548
aF8.599
asg18
(lp47
F8.387
aF8.378
aF8.395
asa(dp48
g2
(lp49
F8.368
aF8.014000000000001
aF8.368
asg4
(lp50
F0.0
aF0.0
aF0.021
asg6
g7
sg8
g9
sg10
(lp51
F8.207
aF7.743
aF8.207
asg14
S'SN2013dx'
p52
sa(dp53
g2
(lp54
F8.068
aF8.01
aF8.116999999999999
asg4
(lp55
F0.059
aF0.023999999999999994
aF0.094
asg6
g7
sg8
g9
sg10
(lp56
F8.183
aF8.138
aF8.435
asg14
S'XRF020903'
p57
sg16
(lp58
F8.007
aF7.896
aF8.09
asg18
(lp59
F8.016
aF7.997
aF8.034
asa(dp60
g2
(lp61
F8.694
aF8.623000000000001
aF8.756
asg4
(lp62
F0.195
aF0.11900000000000001
aF0.28200000000000003
asg6
g7
sg8
g9
sg10
(lp63
F8.63
aF8.529
aF8.711
asg12
(lp64
F8.317
aF8.297
aF8.336
asg14
S'SN2013cq'
p65
sg16
(lp66
F8.343
aF8.179
aF8.482
asg18
(lp67
F8.407
aF8.377
aF8.436
asa(dp68
g2
(lp69
F8.491
aF8.474
aF8.507
asg4
(lp70
F0.199
aF0.17600000000000002
aF0.221
asg6
g7
sg8
g9
sg10
(lp71
F8.46
aF8.459000000000001
aF8.461
asg12
(lp72
F8.218
aF8.211
aF8.225
asg14
S'SN2010bh'
p73
sg16
(lp74
F8.393
aF8.361
aF8.42
asg18
(lp75
F8.259
aF8.252
aF8.266
asa(dp76
g2
(lp77
F8.402
aF8.276
aF8.491999999999999
asg4
(lp78
F0.0
aF0.0
aF0.0
asg6
g7
sg8
g9
sg10
(lp79
F8.115
aF8.029
aF8.404
asg12
(lp80
F8.25
aF8.216
aF8.278
asg14
S'SN2016jca'
p81
sg18
(lp82
F8.305
aF8.251999999999999
aF8.347999999999999
asa.