(lp0
(dp1
S'M08_N2Ha'
p2
(lp3
F8.941
aF8.903
aF8.976
asS'logSFR'
p4
(lp5
F-0.335
aF0.076
aF-0.634
aF-1.695
aF0.28
aF-3.384
aF0.766
asS'dist'
p6
cnumpy.core.multiarray
scalar
p7
(cnumpy
dtype
p8
(S'f8'
p9
I0
I1
tp10
Rp11
(I3
S'<'
p12
NNNI-1
I-1
I0
tp13
bS'\xd3\xa5#\xaf\xc9@b@'
p14
tp15
Rp16
sS'E(B-V)'
p17
(lp18
F0.468
aF0.41900000000000004
aF0.513
asS'modelmag'
p19
(lp20
F-999.0
aF15.043437
aF14.450348
aF14.037049
aF13.872028
asS'redshift'
p21
g7
(g11
S'\x0eM\xd9\xe9\x07u\xa1?'
p22
tp23
Rp24
sS'SNtype'
p25
S'Ic'
p26
sS'region'
p27
S'HII3'
p28
sS'logMs'
p29
(lp30
F10.558
aF10.613
aF10.563
aF10.456
aF10.655
aF10.364
aF10.743
asS'KD02comb'
p31
(lp32
F8.802
aF8.748
aF8.859
asS'M_g'
p33
g7
(g11
S'\xab\xf3\xadsX\xc74\xc0'
p34
tp35
Rp36
sS'logsSFR'
p37
(lp38
F-10.865
aF-10.57
aF-11.122
aF-12.109
aF-10.286
aF-13.539
aF-9.833
asS'M13_O3N2'
p39
(lp40
F8.441
aF8.430000000000001
aF8.452
asS'modelerr'
p41
(lp42
F-999.0
aF0.01
aF0.092
aF0.01
aF0.01
asS'M_B'
p43
g7
(g11
S'rHGT\xaf]4\xc0'
p44
tp45
Rp46
sS'PTFname'
p47
S'09iqd'
p48
sS'M_r'
p49
g7
(g11
S'\xab\xf3\xadsX\xc74\xc0'
p50
tp51
Rp52
sS'D13_N2S2_O3S2'
p53
(lp54
F8.996
aF8.949
aF9.040000000000001
asS'PP04_O3N2'
p55
(lp56
F8.594
aF8.581
aF8.606
asa(dp57
g2
(lp58
F8.331
aF8.289
aF8.368
asg4
(lp59
F-0.827
aF-0.787
aF-1.146
aF-1.959
aF-0.455
aF-4.158
aF-0.06
asg6
g7
(g11
S'\xb7\x85\xfa\x936\x98`@'
p60
tp61
Rp62
sg17
(lp63
F0.032
aF0.012
aF0.053000000000000005
asg19
(lp64
F-999.0
aF18.301691
aF18.002474
aF17.958197
aF17.809141
asg21
g7
(g11
S'\xa93\xf7\x90\xf0\xbd\x9f?'
p65
tp66
Rp67
sg25
S'uncertain'
p68
sg27
S'SNsite'
p69
sg29
(lp70
F8.444
aF8.44
aF8.464
aF8.341
aF8.575
aF8.231
aF8.751
asg31
(lp71
F8.479
aF8.418
aF8.527999999999999
asg33
g7
(g11
S'\x954\xacyGP1\xc0'
p72
tp73
Rp74
sg37
(lp75
F-9.275
aF-9.19
aF-9.593
aF-10.455
aF-8.881
aF-12.596
aF-8.402
asg39
(lp76
F8.191
aF8.178
aF8.203000000000001
asg41
(lp77
F-999.0
aF0.063
aF0.05
aF0.051
aF0.085
asg43
g7
(g11
S'\xb5z\x14{*\xfe0\xc0'
p78
tp79
Rp80
sg47
S'10svt'
p81
sg49
g7
(g11
S'\x954\xacyGP1\xc0'
p82
tp83
Rp84
sg53
(lp85
F8.296
aF8.216999999999999
aF8.366
asg55
(lp86
F8.218
aF8.202
aF8.233
asa(dp87
g2
(lp88
F8.458
aF8.376
aF8.523
asg4
(lp89
F-0.226
aF-0.204
aF-0.384
aF-0.723
aF0.098
aF-2.739
aF0.452
asg6
g7
(g11
S'N\xcb`y"\x01s@'
p90
tp91
Rp92
sg17
(lp93
F0.0
aF0.0
aF0.0
asg19
(lp94
F-999.0
aF18.850815
aF18.554391
aF18.395662
aF18.376503
aF20.415211
aF20.933974
asg21
g7
(g11
S'\xdew\x0c\x8f\xfd,\xb2?'
p95
tp96
Rp97
sg25
S'Ic'
p98
sg27
S'SNsite'
p99
sg29
(lp100
F8.928
aF8.933
aF8.948
aF8.854
aF9.026
aF8.779
aF9.188
asg31
(lp101
F8.479
aF8.12
aF8.558
asg33
g7
(g11
S'\xdf8\xa82f\x902\xc0'
p102
tp103
Rp104
sg37
(lp105
F-9.184
aF-9.07
aF-9.326
aF-9.685
aF-8.822
aF-11.686
aF-8.432
asg39
(lp106
F8.238
aF8.215
aF8.256
asg41
(lp107
F-999.0
aF0.1
aF0.084
aF0.052
aF0.04
aF0.2651392
aF0.364607
asg43
g7
(g11
S'\x9b\x8f\xdb~\x82>2\xc0'
p108
tp109
Rp110
sg47
S'10xik'
p111
sg49
g7
(g11
S'\xdf8\xa82f\x902\xc0'
p112
tp113
Rp114
sg53
(lp115
F8.282
aF8.128
aF8.399000000000001
asg55
(lp116
F8.288
aF8.254
aF8.315
asa(dp117
g2
(lp118
F8.974
aF8.964
aF8.985
asg4
(lp119
F1.092
aF1.102
aF1.071
aF0.949
aF1.223
aF0.668
aF1.346
asg6
g7
(g11
S'SzxJ\x08\xcf`@'
p120
tp121
Rp122
sg17
(lp123
F0.354
aF0.32799999999999996
aF0.381
asg19
(lp124
F-999.0
aF13.120817
aF12.527546
aF12.242409
aF12.010446
aF15.647178
aF16.222815
asg21
g7
(g11
S'[\xd2Q\x0ef\x13\xa0?'
p125
tp126
Rp127
sg25
S'Ic'
p128
sg27
S'SNsite'
p129
sg29
(lp130
F11.151
aF11.147
aF11.165
aF11.072
aF11.255
aF10.996
aF11.349
asg31
(lp131
F9.099
aF9.047
aF9.166
asg33
g7
(g11
S'\xf06\xa3\xdb\xb5\x856\xc0'
p132
tp133
Rp134
sg37
(lp135
F-10.076
aF-10.05
aF-10.098
aF-10.211
aF-9.943
aF-10.55
aF-9.817
asg39
(lp136
F8.63
aF8.608
aF8.653
asg41
(lp137
F-999.0
aF0.012
aF0.015
aF0.003
aF0.004
aF0.0190908
aF0.0367185
asg43
g7
(g11
S'Tp\x81\x00\t\x1c6\xc0'
p138
tp139
Rp140
sg47
S'12ktu'
p141
sg49
g7
(g11
S'\xf06\xa3\xdb\xb5\x856\xc0'
p142
tp143
Rp144
sg53
(lp145
F9.201
aF9.185
aF9.218
asg55
(lp146
F8.874
aF8.855
aF8.896
asa(dp147
g2
(lp148
F8.737
aF8.531
aF8.876
asg4
(lp149
F-0.454
aF-0.461
aF-0.614
aF-0.924
aF-0.132
aF-3.064
aF0.304
asg6
g7
(g11
S'\x91\xe1\x88 \\6|@'
p150
tp151
Rp152
sg17
(lp153
F0.0
aF0.0
aF0.298
asg19
(lp154
F21.05399
aF20.022
aF19.57219
aF19.355582
aF19.575111
asg21
g7
(g11
S'o\xf6\x07\xcam\xfb\xba?'
p155
tp156
Rp157
sg25
S'Ic-BL'
p158
sg27
S'SNsite'
p159
sg29
(lp160
F9.082
aF9.053
aF9.1
aF8.97
aF9.216
aF8.875
aF9.383
asg31
(lp161
F8.524
aF8.417
aF8.642
asg33
g7
(g11
S'j\xda\xc6%4@2\xc0'
p162
tp163
Rp164
sg37
(lp165
F-9.547
aF-9.5
aF-9.702
aF-10.023
aF-9.209
aF-12.091
aF-8.824
asg39
(lp166
F8.413
aF8.347
aF8.469
asg41
(lp167
F0.271179
aF0.0436075
aF0.0468376
aF0.0702881
aF0.3330425
asg43
g7
(g11
S'\xbd\xfe\xe3\x12\x06\xe21\xc0'
p168
tp169
Rp170
sg47
S'11cmh'
p171
sg49
g7
(g11
S'j\xda\xc6%4@2\xc0'
p172
tp173
Rp174
sg53
(lp175
F8.654
aF8.376
aF8.832
asg55
(lp176
F8.55
aF8.447000000000001
aF8.634
asa(dp177
g2
(lp178
F8.782
aF8.778
aF8.786
asg4
(lp179
F0.558
aF0.554
aF0.576
aF0.288
aF0.86
aF0.046
aF1.181
asg6
g7
(g11
S'W\x06_\xee\x07\x8f`@'
p180
tp181
Rp182
sg17
(lp183
F0.3
aF0.27999999999999997
aF0.321
asg19
(lp184
F15.707613
aF14.457762
aF13.911589
aF13.622214
aF13.411428
asg21
g7
(g11
S'4\xf5\xbaE`\xac\x9f?'
p185
tp186
Rp187
sg25
S'Ic'
p188
sg27
S'SNsite'
p189
sg29
(lp190
F10.57
aF10.56
aF10.58
aF10.49
aF10.662
aF10.417
aF10.75
asg31
(lp191
F8.669
aF8.654
aF8.684000000000001
asg33
g7
(g11
S"xi\xf5G\x1f'5\xc0"
p192
tp193
Rp194
sg37
(lp195
F-10.025
aF-10.06
aF-10.009
aF-10.299
aF-9.727
aF-10.555
aF-9.401
asg39
(lp196
F8.377
aF8.373000000000001
aF8.381
asg41
(lp197
F0.0349339
aF0.0021889
aF0.0019143
aF0.0019013
aF0.0062699
asg43
g7
(g11
S'\xbfZ\x13\x898\xc14\xc0'
p198
tp199
Rp200
sg47
S'12dcp'
p201
sg49
g7
(g11
S"xi\xf5G\x1f'5\xc0"
p202
tp203
Rp204
sg53
(lp205
F8.807
aF8.801
aF8.813
asg55
(lp206
F8.497
aF8.493
aF8.501
asa(dp207
g2
(lp208
F8.472
aF8.421999999999999
aF8.514
asg4
(lp209
F-0.195
aF-0.297
aF-0.159
aF-0.43
aF0.138
aF-0.651
aF0.617
asg6
g7
(g11
S'!\xc4\x90\xe5\x90\xb1|@'
p210
tp211
Rp212
sg17
(lp213
F0.292
aF0.21399999999999997
aF0.375
asg19
(lp214
F20.748711
aF19.773019
aF19.482117
aF19.193766
aF19.202828
asg21
g7
(g11
S'1\xb4:9Cq\xbb?'
p215
tp216
Rp217
sg25
S'uncertain'
p218
sg27
S'SNsite'
p219
sg29
(lp220
F9.043
aF9.027
aF9.067
aF8.975
aF9.135
aF8.912
aF9.353
asg31
(lp221
F8.347
aF8.216
aF8.463
asg33
g7
(g11
S'U\x11\xc4\x8cX\x892\xc0'
p222
tp223
Rp224
sg37
(lp225
F-9.252
aF-9.29
aF-9.231
aF-9.501
aF-8.948
aF-9.759
aF-8.465
asg39
(lp226
F8.287
aF8.271
aF8.304
asg41
(lp227
F0.112124
aF0.0186151
aF0.019599
aF0.0210203
aF0.0850905
asg43
g7
(g11
S'Z\xc0x\x1e\xe672\xc0'
p228
tp229
Rp230
sg47
S'09ps'
p231
sg49
g7
(g11
S'U\x11\xc4\x8cX\x892\xc0'
p232
tp233
Rp234
sg53
(lp235
F8.309
aF8.221
aF8.382
asg55
(lp236
F8.362
aF8.337
aF8.388
asa(dp237
g2
(lp238
F8.966
aF8.95
aF8.981
asg4
(lp239
F0.323
aF0.286
aF0.305
aF-0.098
aF0.771
aF-0.883
aF1.31
asg6
g7
(g11
S'~\x84\xd9\x9a\xcd[e@'
p240
tp241
Rp242
sg17
(lp243
F0.717
aF0.631
aF0.8049999999999999
asg19
(lp244
F17.290628
aF15.623821
aF14.770229
aF14.326372
aF13.935834
asg21
g7
(g11
S'\x16\xc2j,am\xa4?'
p245
tp246
Rp247
sg25
S'Ic'
p248
sg27
S'SNsite'
p249
sg29
(lp250
F10.926
aF10.92
aF10.935
aF10.832
aF11.023
aF10.747
aF11.138
asg31
(lp251
F8.835
aF8.74
aF8.937000000000001
asg33
g7
(g11
S'&vP>\x1c\x8a4\xc0'
p252
tp253
Rp254
sg37
(lp255
F-10.617
aF-10.72
aF-10.628
aF-10.982
aF-10.221
aF-11.682
aF-9.711
asg39
(lp256
F8.574
aF8.544
aF8.611
asg41
(lp257
F0.0262508
aF0.0034261
aF0.0028154
aF0.002766
aF0.0046901
asg43
g7
(g11
S'Z\xe3\xaf{\x93\x0b4\xc0'
p258
tp259
Rp260
sg47
S'11jgj'
p261
sg49
g7
(g11
S'&vP>\x1c\x8a4\xc0'
p262
tp263
Rp264
sg53
(lp265
F9.094
aF9.064
aF9.129999999999999
asg55
(lp266
F8.792
aF8.753
aF8.843
asa(dp267
g2
(lp268
F8.099
aF7.668
aF8.69
asg4
(lp269
F-1.588
aF-1.335
aF-1.829
aF-2.944
aF-0.794
aF-4.72
aF-0.23
asg6
g7
(g11
S'^K\xdc\xd6\xc6\xccq@'
p270
tp271
Rp272
sg17
(lp273
F0.0
aF0.0
aF0.045
asg19
(lp274
F19.967652
aF18.447682
aF18.091743
aF17.873116
aF18.015004
asg21
g7
(g11
S'\xeay7\x16\x14\x06\xb1?'
p275
tp276
Rp277
sg25
S'Ic'
p278
sg27
S'SNsite'
p279
sg29
(lp280
F9.225
aF9.187
aF9.248
aF9.151
aF9.335
aF9.095
aF9.458
asg31
(lp281
F8.108
aF8.01
aF8.233
asg33
g7
(g11
S'\x1cE\xc6\xa53\xd32\xc0'
p282
tp283
Rp284
sg37
(lp285
F-10.797
aF-10.45
aF-10.994
aF-12.091
aF-9.981
aF-13.444
aF-9.464
asg39
(lp286
F8.188
aF8.174000000000001
aF8.207
asg41
(lp287
F0.1352774
aF0.0158591
aF0.0179019
aF0.0212548
aF0.0907938
asg43
g7
(g11
S'\xddL\xb9 \x8b|2\xc0'
p288
tp289
Rp290
sg47
S'10hie'
p291
sg49
g7
(g11
S'\x1cE\xc6\xa53\xd32\xc0'
p292
tp293
Rp294
sg53
(lp295
F7.762
aF7.502
aF7.989
asg55
(lp296
F8.094
aF7.946999999999999
aF8.181999999999999
asa(dp297
g2
(lp298
F8.501
aF8.485
aF8.514999999999999
asg4
(lp299
F-0.639
aF-0.799
aF-0.597
aF-0.921
aF-0.229
aF-1.221
aF0.234
asg6
g7
(g11
S'\xdb\x0c\x88\xfd\x90\x91p@'
p300
tp301
Rp302
sg17
(lp303
F0.485
aF0.45999999999999996
aF0.513
asg19
(lp304
F21.04727
aF19.942467
aF19.719862
aF19.297519
aF19.33237
asg21
g7
(g11
S'\xcbiO\xc99\xb1\xaf?'
p305
tp306
Rp307
sg25
S'Ic'
p308
sg27
S'SNsite'
p309
sg29
(lp310
F8.581
aF8.56
aF8.615
aF8.512
aF8.699
aF8.455
aF8.936
asg31
(lp311
F8.384
aF8.321
aF8.441
asg33
g7
(g11
S'B\xb6\xff@\xb0,1\xc0'
p312
tp313
Rp314
sg37
(lp315
F-9.248
aF-9.36
aF-9.217
aF-9.539
aF-8.852
aF-9.897
aF-8.36
asg39
(lp316
F8.233
aF8.226
aF8.24
asg41
(lp317
F0.0958189
aF0.0183913
aF0.0196085
aF0.0211255
aF0.065967
asg43
g7
(g11
S'J\xc7\x98\xc8\xb6\xe00\xc0'
p318
tp319
Rp320
sg47
S'12dtf'
p321
sg49
g7
(g11
S'B\xb6\xff@\xb0,1\xc0'
p322
tp323
Rp324
sg53
(lp325
F8.481
aF8.455
aF8.504999999999999
asg55
(lp326
F8.281
aF8.273000000000001
aF8.288
asa(dp327
g2
(lp328
F8.455
aF8.312
aF8.557
asg4
(lp329
F-0.628
aF-0.601
aF-0.747
aF-0.962
aF-0.335
aF-2.923
aF-0.04
asg6
g7
(g11
S']:\xb1_\\%\x85@'
p330
tp331
Rp332
sg17
(lp333
F0.657
aF0.42500000000000004
aF0.924
asg19
(lp334
F23.858183
aF21.817487
aF22.274666
aF21.739934
aF21.85206
asg21
g7
(g11
S'x}\xe6\xacO9\xc4?'
p335
tp336
Rp337
sg25
S'Ic-BL'
p338
sg27
S'SNsite'
p339
sg29
(lp340
F8.126
aF8.12
aF8.149
aF7.876
aF8.407
aF7.653
aF8.72
asg31
(lp341
F8.475
aF8.405999999999999
aF8.548
asg33
g7
(g11
S'\xac\xe2\x99\x1a\x9bU1\xc0'
p342
tp343
Rp344
sg37
(lp345
F-8.745
aF-8.69
aF-8.896
aF-9.308
aF-8.33
aF-11.293
aF-8.049
asg39
(lp346
F8.228
aF8.193999999999999
aF8.26
asg41
(lp347
F1.669991
aF0.1480869
aF0.2938961
aF0.2799713
aF0.9641347
asg43
g7
(g11
S'k\x15\x94\xe2\x19@1\xc0'
p348
tp349
Rp350
sg47
S'11img'
p351
sg49
g7
(g11
S'\xac\xe2\x99\x1a\x9bU1\xc0'
p352
tp353
Rp354
sg53
(lp355
F8.363
aF8.136999999999999
aF8.539
asg55
(lp356
F8.265
aF8.199
aF8.316
asa(dp357
g2
(lp358
F8.928
aF8.909
aF8.946000000000002
asg4
(lp359
F0.063
aF-0.029
aF0.152
aF-0.17
aF0.512
aF-0.33
aF0.976
asg6
g7
(g11
S'n\x05\xca\xf3m\x13\x7f@'
p360
tp361
Rp362
sg17
(lp363
F0.45
aF0.379
aF0.53
asg19
(lp364
F20.079097
aF19.142227
aF18.606294
aF18.221976
aF18.022857
asg21
g7
(g11
S'\x08\xe9)r\x88\xb8\xbd?'
p365
tp366
Rp367
sg25
S'other'
p368
sg27
S'SNsite'
p369
sg29
(lp370
F9.917
aF9.947
aF9.93
aF9.801
aF10.041
aF9.717
aF10.211
asg31
(lp371
F8.765
aF8.712
aF8.81
asg33
g7
(g11
S'\x1aa&o*W3\xc0'
p372
tp373
Rp374
sg37
(lp375
F-9.847
aF-9.99
aF-9.784
aF-10.072
aF-9.509
aF-10.245
aF-9.036
asg39
(lp376
F8.448
aF8.431000000000001
aF8.466000000000001
asg41
(lp377
F0.0727279
aF0.0136525
aF0.0112641
aF0.0113523
aF0.0299296
asg43
g7
(g11
S'\xcb\xe6A\xbd\x15\xf22\xc0'
p378
tp379
Rp380
sg47
S'12elh'
p381
sg49
g7
(g11
S'\x1aa&o*W3\xc0'
p382
tp383
Rp384
sg53
(lp385
F8.897
aF8.868
aF8.926
asg55
(lp386
F8.602
aF8.58
aF8.628
asa(dp387
g2
(lp388
F9.066
aF9.051
aF9.083
asg4
(lp389
F-0.879
aF-0.379
aF-1.068
aF-2.212
aF-0.069
aF-3.394
aF0.532
asg6
g7
(g11
S'\x04\xbbd~Le\\@'
p390
tp391
Rp392
sg17
(lp393
F0.235
aF0.211
aF0.257
asg19
(lp394
F16.123174
aF14.319133
aF13.563651
aF13.097964
aF12.884342
asg21
g7
(g11
S';\xfd\xa0.R(\x9b?'
p395
tp396
Rp397
sg25
S'Ic'
p398
sg27
S'HII2'
p399
sg29
(lp400
F10.934
aF10.96
aF10.939
aF10.837
aF11.021
aF10.762
aF11.109
asg31
(lp401
F9.087
aF9.074
aF9.1
asg33
g7
(g11
S'"\nu\x1d\x1a\xf54\xc0'
p402
tp403
Rp404
sg37
(lp405
F-11.752
aF-11.41
aF-11.882
aF-12.912
aF-10.993
aF-13.775
aF-10.425
asg39
(lp406
F8.617
aF8.598
aF8.637
asg41
(lp407
F0.0423023
aF0.001472
aF0.0012849
aF0.0011604
aF0.0081501
asg43
g7
(g11
S'\x15\x07\xcb\xdcm~4\xc0'
p408
tp409
Rp410
sg47
S'11klg'
p411
sg49
g7
(g11
S'"\nu\x1d\x1a\xf54\xc0'
p412
tp413
Rp414
sg53
(lp415
F9.126
aF9.110999999999999
aF9.141
asg55
(lp416
F8.856
aF8.841
aF8.87
asa(dp417
g2
(lp418
F8.779
aF8.748
aF8.806
asg6
g7
(g11
S'\xffD\x0f\xd8V~u@'
p419
tp420
Rp421
sg17
(lp422
F1.469
aF1.3230000000000002
aF1.637
asg21
g7
(g11
S'A(\xef\xe3h\x8e\xb4?'
p423
tp424
Rp425
sg25
S'Ic'
p426
sg27
S'SNsite'
p427
sg29
(lp428
F10.17
aF10.147
aF10.181
aF10.089
aF10.263
aF10.01
aF10.356
asg31
(lp429
F8.818
aF8.649
aF9.013
asg37
(lp430
F-9.942
aF-9.92
aF-9.931
aF-10.204
aF-9.663
aF-10.451
aF-9.339
asg33
g7
(g11
S'\x13K\xb5\xf7\x8134\xc0'
p431
tp432
Rp433
sg41
(lp434
F0.0611433
aF0.0094521
aF0.0077227
aF0.008409
aF0.0245047
asg43
g7
(g11
S'\xa6e\x8a?\xb4\xcc3\xc0'
p435
tp436
Rp437
sg47
S'10qqd'
p438
sg49
g7
(g11
S'\x13K\xb5\xf7\x8134\xc0'
p439
tp440
Rp441
sg4
(lp442
F0.24
aF0.146
aF0.256
aF-0.022
aF0.525
aF-0.269
aF0.85
asg19
(lp443
F18.6801
aF17.480935
aF16.923502
aF16.598439
aF16.421799
asa(dp444
g2
(lp445
F8.312
aF8.068
aF8.45
asg4
(lp446
F-1.664
aF-1.499
aF-1.938
aF-2.767
aF-1.182
aF-4.797
aF-0.676
asg6
g7
(g11
S'\xf7\x0eaX_Nu@'
p447
tp448
Rp449
sg17
(lp450
F0.007
aF0.0
aF0.1
asg19
(lp451
F23.212411
aF21.686122
aF21.084529
aF20.926499
aF20.498196
asg21
g7
(g11
S'\xcc\xb6\xd3\xd6\x88`\xb4?'
p452
tp453
Rp454
sg25
S'Ic-BL'
p455
sg27
S'SNsite'
p456
sg29
(lp457
F8.46
aF8.453
aF8.471
aF8.297
aF8.633
aF8.147
aF8.803
asg31
(lp458
F8.168
aF8.078
aF8.412999999999998
asg33
g7
(g11
S'\xee\x0bY\x9c9\xf4/\xc0'
p459
tp460
Rp461
sg37
(lp462
F-10.144
aF-10.06
aF-10.384
aF-11.209
aF-9.607
aF-13.095
aF-9.117
asg39
(lp463
F8.235
aF8.197
aF8.266
asg41
(lp464
F0.7991439
aF0.102838
aF0.0836145
aF0.1209211
aF0.3047802
asg43
g7
(g11
S'\xfa \xf8{\x8a\x1f/\xc0'
p465
tp466
Rp467
sg47
S'10tqv'
p468
sg49
g7
(g11
S'\xee\x0bY\x9c9\xf4/\xc0'
p469
tp470
Rp471
sg53
(lp472
F8.118
aF7.824000000000001
aF8.344000000000001
asg55
(lp473
F8.268
aF8.179
aF8.324
asa(dp474
g2
(lp475
F8.118
aF8.116
aF8.120000000000001
asg6
g7
(g11
S'\xe3\xbd\xba\xa1i\xfam@'
p476
tp477
Rp478
sg17
(lp479
F0.471
aF0.46499999999999997
aF0.477
asg19
(lp480
F18.546969
aF17.760997
aF18.359123
aF17.86078
aF18.345936
aF19.05598
aF19.298131
asg21
g7
(g11
S'\xa1fH\x15\xc5\xab\xac?'
p481
tp482
Rp483
sg25
S'Ic-BL'
p484
sg27
S'SNsite'
p485
sg29
(lp486
F8.479
aF8.48
aF8.542
aF8.471
aF8.609
aF8.467
aF8.613
asg31
(lp487
F8.075
aF8.068
aF8.081999999999999
asg37
(lp488
F-8.059
aF-8.05
aF-8.087
aF-8.137
aF-8.053
aF-8.14
aF-8.05
asg33
g7
(g11
S'\xaf\x08_Ys#3\xc0'
p489
tp490
Rp491
sg41
(lp492
F0.0250336
aF0.0070496
aF0.0117716
aF0.0108154
aF0.0551051
aF0.028225
aF0.0424093
asg43
g7
(g11
S'\xad\xb1\xe7W=\x193\xc0'
p493
tp494
Rp495
sg47
S'10xem'
p496
sg49
g7
(g11
S'\xaf\x08_Ys#3\xc0'
p497
tp498
Rp499
sg4
(lp500
F0.425
aF0.426
aF0.452
aF0.417
aF0.48
aF0.414
aF0.483
asg55
(lp501
F8.082
aF8.081000000000001
aF8.083
asa(dp502
g2
(lp503
F8.849
aF8.822000000000001
aF8.878
asg4
(lp504
F0.314
aF0.321
aF0.316
aF0.185
aF0.421
aF0.099
aF0.54
asg6
g7
(g11
S'\xd2\xaeN(\xc9\xd6^@'
p505
tp506
Rp507
sg17
(lp508
F0.12
aF0.076
aF0.16299999999999998
asg19
(lp509
F16.436455
aF15.150047
aF14.525096
aF14.22443
aF13.976517
aF17.200329
aF17.703633
asg21
g7
(g11
S'\x19T\x1b\x9c\x88~\x9d?'
p510
tp511
Rp512
sg25
S'Ic'
p513
sg27
S'SNsite'
p514
sg29
(lp515
F10.394
aF10.427
aF10.4
aF10.302
aF10.478
aF10.233
aF10.565
asg31
(lp516
F8.884
aF8.853
aF8.916
asg33
g7
(g11
S'\xf8\x86\xa4\xf3EN4\xc0'
p517
tp518
Rp519
sg37
(lp520
F-10.099
aF-10.06
aF-10.09
aF-10.216
aF-9.976
aF-10.323
aF-9.842
asg39
(lp521
F8.484
aF8.47
aF8.498
asg41
(lp522
F0.0227648
aF0.0027497
aF0.0036502
aF0.0038799
aF0.0081331
aF0.0355041
aF0.0609372
asg43
g7
(g11
S'2=R@\x0f\xe23\xc0'
p523
tp524
Rp525
sg47
S'10wal'
p526
sg49
g7
(g11
S'\xf8\x86\xa4\xf3EN4\xc0'
p527
tp528
Rp529
sg53
(lp530
F8.772
aF8.728
aF8.812
asg55
(lp531
F8.656
aF8.641
aF8.672
asa(dp532
g2
(lp533
F8.528
aF8.508000000000001
aF8.547
asg4
(lp534
F0.09
aF0.122
aF0.032
aF-0.108
aF0.226
aF-0.743
aF0.438
asg6
g7
(g11
S'\x92\xd3\x94\xf6\xa5\xe7o@'
p535
tp536
Rp537
sg17
(lp538
F0.21
aF0.185
aF0.237
asg19
(lp539
F18.990665
aF17.875111
aF17.690872
aF17.457243
aF17.498121
aF19.473788
aF19.895894
asg21
g7
(g11
S'\xee!\xe1{\x7f\x83\xae?'
p540
tp541
Rp542
sg25
S'Ic'
p543
sg27
S'SNsite'
p544
sg29
(lp545
F9.126
aF9.107
aF9.148
aF9.088
aF9.179
aF9.054
aF9.37
asg31
(lp546
F8.541
aF8.49
aF8.589
asg33
g7
(g11
S'\xed\x8e\x86"\xdd(3\xc0'
p547
tp548
Rp549
sg37
(lp550
F-9.065
aF-8.99
aF-9.122
aF-9.273
aF-8.909
aF-10.011
aF-8.692
asg39
(lp551
F8.249
aF8.242
aF8.255
asg41
(lp552
F0.0746913
aF0.0114253
aF0.0120943
aF0.0132516
aF0.043256
aF0.027157
aF0.0535483
asg43
g7
(g11
S'\xc8\x81K\xa8\xf6\xdf2\xc0'
p553
tp554
Rp555
sg47
S'10ood'
p556
sg49
g7
(g11
S'\xed\x8e\x86"\xdd(3\xc0'
p557
tp558
Rp559
sg53
(lp560
F8.51
aF8.479
aF8.541
asg55
(lp561
F8.304
aF8.295
aF8.312
asa(dp562
g2
(lp563
F8.971
aF8.967
aF8.975
asg4
(lp564
F0.606
aF0.612
aF0.627
aF0.556
aF0.699
aF0.481
aF0.793
asg6
g7
(g11
S'\xa2\xd6\xaa\x07H\xd1Z@'
p565
tp566
Rp567
sg17
(lp568
F0.495
aF0.486
aF0.504
asg19
(lp569
F15.241163
aF13.995019
aF13.324087
aF12.946781
aF12.63337
aF15.926161
aF16.357923
asg21
g7
(g11
S'4\x9fs\xb7\xeb\xa5\x99?'
p570
tp571
Rp572
sg25
S'Ic'
p573
sg27
S'SNsite'
p574
sg29
(lp575
F10.921
aF10.933
aF10.906
aF10.855
aF10.954
aF10.771
aF10.982
asg31
(lp576
F8.912
aF8.905000000000001
aF8.918000000000001
asg33
g7
(g11
S'n\xb4\r\x96I(5\xc0'
p577
tp578
Rp579
sg37
(lp580
F-10.333
aF-10.33
aF-10.284
aF-10.358
aF-10.165
aF-10.468
aF-10.0
asg39
(lp581
F8.514
aF8.503
aF8.524999999999999
asg41
(lp582
F0.0114931
aF0.0011944
aF0.0011888
aF0.0012433
aF0.0022335
aF0.0142298
aF0.0242715
asg43
g7
(g11
S'\x96u&\xb0c\xb84\xc0'
p583
tp584
Rp585
sg47
S'12jxd'
p586
sg49
g7
(g11
S'n\xb4\r\x96I(5\xc0'
p587
tp588
Rp589
sg53
(lp590
F8.985
aF8.979999999999999
aF8.988999999999999
asg55
(lp591
F8.701
aF8.699
aF8.703000000000001
asa(dp592
g2
(lp593
F8.645
aF8.633
aF8.657
asg4
(lp594
F-0.009
aF-0.006
aF0.032
aF-0.082
aF0.092
aF-0.158
aF0.425
asg6
g7
(g11
S'\x90eK\xac\xd0\xc6a@'
p595
tp596
Rp597
sg17
(lp598
F0.462
aF0.445
aF0.47900000000000004
asg19
(lp599
F17.617009
aF16.664867
aF16.312196
aF16.109774
aF15.964172
aF18.072161
aF18.480916
asg21
g7
(g11
S'\x16\xdc\x0fx`\x00\xa1?'
p600
tp601
Rp602
sg25
S'Ic-BL'
p603
sg27
S'SNsite'
p604
sg29
(lp605
F9.349
aF9.32
aF9.368
aF9.275
aF9.429
aF9.229
aF9.672
asg31
(lp606
F8.562
aF8.549
aF8.575999999999999
asg33
g7
(g11
S'^\xfd\xf1e\x8e\x193\xc0'
p607
tp608
Rp609
sg37
(lp610
F-9.349
aF-9.34
aF-9.342
aF-9.445
aF-9.264
aF-9.533
aF-9.084
asg39
(lp611
F8.338
aF8.334
aF8.341999999999999
asg41
(lp612
F0.0195618
aF0.0040883
aF0.0040748
aF0.0052894
aF0.0144879
aF0.0068251
aF0.0112247
asg43
g7
(g11
S'\xfdX\n\xea(\xc32\xc0'
p613
tp614
Rp615
sg47
S'12as'
p616
sg49
g7
(g11
S'^\xfd\xf1e\x8e\x193\xc0'
p617
tp618
Rp619
sg53
(lp620
F8.552
aF8.532
aF8.57
asg55
(lp621
F8.438
aF8.433
aF8.443000000000001
asa(dp622
g2
(lp623
F8.728
aF8.600999999999999
aF8.823
asg4
(lp624
F-0.752
aF-0.752
aF-0.749
aF-0.91
aF-0.605
aF-1.113
aF-0.417
asg6
g7
(g11
S'n\xcbW4k\x98p@'
p625
tp626
Rp627
sg17
(lp628
F0.0
aF0.0
aF0.0
asg19
(lp629
F20.826555
aF19.575348
aF19.05575
aF18.891622
aF18.588389
aF21.088941
aF21.680462
asg21
g7
(g11
S'\xec\xf7\xc4:U\xbe\xaf?'
p630
tp631
Rp632
sg25
S'Ic-BL'
p633
sg27
S'SNsite'
p634
sg29
(lp635
F8.965
aF8.933
aF8.976
aF8.877
aF9.055
aF8.797
aF9.177
asg31
(lp636
F8.631
aF8.498000000000001
aF8.709
asg33
g7
(g11
S'\xad\x1a?|\x91\x8b1\xc0'
p637
tp638
Rp639
sg37
(lp640
F-9.729
aF-9.72
aF-9.731
aF-9.907
aF-9.557
aF-10.117
aF-9.372
asg39
(lp641
F8.366
aF8.331999999999999
aF8.395
asg41
(lp642
F0.1567865
aF0.0259587
aF0.0224495
aF0.029046
aF0.0710661
aF0.1195647
aF0.1856971
asg43
g7
(g11
S"\x00\xa4\xd3\xdd\xcb'1\xc0"
p643
tp644
Rp645
sg47
S'10aavz'
p646
sg49
g7
(g11
S'\xad\x1a?|\x91\x8b1\xc0'
p647
tp648
Rp649
sg53
(lp650
F8.516
aF8.323
aF8.667
asg55
(lp651
F8.481
aF8.43
aF8.525
asa(dp652
g2
(lp653
F8.451
aF8.290000000000001
aF8.568000000000001
asg4
(lp654
F-0.609
aF-0.542
aF-0.584
aF-0.957
aF-0.189
aF-1.456
aF0.444
asg6
g7
(g11
S'\xe0\xe5\xf8]\xd4\xd1j@'
p655
tp656
Rp657
sg17
(lp658
F0.0
aF0.0
aF0.0
asg19
(lp659
F20.111328
aF19.381531
aF19.019384
aF18.700662
aF18.574275
aF21.636657
aF21.630845
asg21
g7
(g11
S'\xe3\xa40\xefq\xa6\xa9?'
p660
tp661
Rp662
sg25
S'Ic-BL'
p663
sg27
S'SNsite'
p664
sg29
(lp665
F8.748
aF8.733
aF8.768
aF8.674
aF8.843
aF8.6
aF9.014
asg31
(lp666
F8.625
aF8.407
aF8.771
asg33
g7
(g11
S'\xe1\x19\xf5\x01\xb4F1\xc0'
p667
tp668
Rp669
sg37
(lp670
F-9.377
aF-9.46
aF-9.357
aF-9.733
aF-8.96
aF-10.253
aF-8.285
asg39
(lp671
F8.269
aF8.23
aF8.302
asg41
(lp672
F0.1103086
aF0.0237218
aF0.0250141
aF0.0315795
aF0.0907227
aF0.1973918
aF0.3165146
asg43
g7
(g11
S'\xa8\xff\x07%\x8c\xef0\xc0'
p673
tp674
Rp675
sg47
S'10bzf'
p676
sg49
g7
(g11
S'\xe1\x19\xf5\x01\xb4F1\xc0'
p677
tp678
Rp679
sg53
(lp680
F8.152
aF7.882
aF8.34
asg55
(lp681
F8.333
aF8.269
aF8.385
asa(dp682
g2
(lp683
F8.161
aF7.976
aF8.279
asg4
(lp684
F-0.499
aF-0.472
aF-0.46
aF-0.691
aF-0.22
aF-0.888
aF0.221
asg6
g7
(g11
S'a\x0by\x8e\x96&z@'
p685
tp686
Rp687
sg17
(lp688
F0.329
aF0.271
aF0.39
asg19
(lp689
F21.130686
aF20.125475
aF19.883464
aF19.519333
aF19.884028
aF21.289038
aF21.477121
asg21
g7
(g11
S'\xf6\xd4\xea\xab\xab\x02\xb9?'
p690
tp691
Rp692
sg25
S'uncertain'
p693
sg27
S'SNsite'
p694
sg29
(lp695
F8.812
aF8.787
aF8.841
aF8.709
aF8.957
aF8.62
aF9.181
asg31
(lp696
F8.28
aF8.145
aF8.408999999999999
asg33
g7
(g11
S'\xca\x8a\x91\x07\x88\xfb1\xc0'
p697
tp698
Rp699
sg37
(lp700
F-9.324
aF-9.32
aF-9.306
aF-9.556
aF-9.06
aF-9.811
aF-8.675
asg39
(lp701
F8.175
aF8.167000000000002
aF8.184000000000001
asg41
(lp702
F0.2020293
aF0.0411815
aF0.0497907
aF0.0512323
aF0.3083682
aF0.3081084
aF0.4396228
asg43
g7
(g11
S'\xce>\x0c}\x00\xae1\xc0'
p703
tp704
Rp705
sg47
S'10gvb'
p706
sg49
g7
(g11
S'\xca\x8a\x91\x07\x88\xfb1\xc0'
p707
tp708
Rp709
sg53
(lp710
F7.945
aF7.714
aF8.136000000000001
asg55
(lp711
F8.102
aF8.040000000000001
aF8.147
asa(dp712
g2
(lp713
F9.042
aF9.016
aF9.07
asg4
(lp714
F0.712
aF0.694
aF0.71
aF0.572
aF0.826
aF0.405
aF0.986
asg6
g7
(g11
S'\xfe?\xbf\xe2h x@'
p715
tp716
Rp717
sg17
(lp718
F0.457
aF0.392
aF0.525
asg19
(lp719
F18.133929
aF16.845222
aF16.1284
aF15.739685
aF15.476487
aF19.464685
aF20.190421
asg21
g7
(g11
S'\xfb\x969]\x16\x13\xb7?'
p720
tp721
Rp722
sg25
S'other'
p723
sg27
S'nuc'
p724
sg29
(lp725
F10.774
aF10.733
aF10.788
aF10.699
aF10.865
aF10.622
aF10.966
asg31
(lp726
F9.079
aF8.989
aF9.192
asg33
g7
(g11
S'pE=\xe6}\x165\xc0'
p727
tp728
Rp729
sg37
(lp730
F-10.077
aF-10.11
aF-10.083
aF-10.21
aF-9.965
aF-10.367
aF-9.826
asg39
(lp731
F8.637
aF8.597000000000001
aF8.686
asg41
(lp732
F0.0396746
aF0.0058801
aF0.0047291
aF0.0047516
aF0.0109532
aF0.0217429
aF0.0373647
asg43
g7
(g11
S'8\x9f\x9e\xab\xea\xa24\xc0'
p733
tp734
Rp735
sg47
S'09q'
p736
sg49
g7
(g11
S'pE=\xe6}\x165\xc0'
p737
tp738
Rp739
sg53
(lp740
F9.319
aF9.286000000000001
aF9.353000000000002
asg55
(lp741
F8.891
aF8.834
aF8.973
asa(dp742
g2
(lp743
F8.893
aF8.884
aF8.902000000000001
asg4
(lp744
F1.177
aF1.184
aF1.138
aF0.854
aF1.328
aF0.792
aF1.347
asg6
g7
(g11
S'\x88\x1e\xed\x9b\xf0\xdfi@'
p745
tp746
Rp747
sg17
(lp748
F0.0
aF0.0
aF0.0
asg19
(lp749
F16.134422
aF15.435935
aF15.220042
aF15.010485
aF14.923665
aF16.227509
aF16.633475
asg21
g7
(g11
S'F\x98\xa2\\\x1a\xbf\xa8?'
p750
tp751
Rp752
sg25
S'Ic'
p753
sg27
S'SNsite'
p754
sg29
(lp755
F10.263
aF10.453
aF10.243
aF10.043
aF10.441
aF9.824
aF10.452
asg31
(lp756
F8.787
aF8.767000000000001
aF8.808000000000002
asg33
g7
(g11
S'\x12X\\o\xd6$5\xc0'
p757
tp758
Rp759
sg37
(lp760
F-9.086
aF-9.07
aF-9.109
aF-9.411
aF-8.885
aF-9.576
aF-8.488
asg39
(lp761
F8.448
aF8.440000000000001
aF8.456
asg41
(lp762
F0.0242601
aF0.0030003
aF0.0035434
aF0.0045421
aF0.0123616
aF0.002821
aF0.0080437
asg43
g7
(g11
S'c9y\xa5f\xd94\xc0'
p763
tp764
Rp765
sg47
S'10hfe'
p766
sg49
g7
(g11
S'\x12X\\o\xd6$5\xc0'
p767
tp768
Rp769
sg53
(lp770
F8.782
aF8.771
aF8.793
asg55
(lp771
F8.602
aF8.597
aF8.607000000000001
asa(dp772
g2
(lp773
F8.708
aF8.667
aF8.745000000000001
asg4
(lp774
F-0.217
aF-0.227
aF-0.211
aF-0.433
aF-0.006
aF-0.677
aF0.269
asg6
g7
(g11
S'\xe5Xp\xae0\xc8~@'
p775
tp776
Rp777
sg17
(lp778
F0.282
aF0.19899999999999995
aF0.374
asg19
(lp779
F20.668563
aF19.651339
aF19.186731
aF18.88447
aF18.80787
aF21.300702
aF21.387295
asg21
g7
(g11
S'\xbb\x9c\x12\x10\x93p\xbd?'
p780
tp781
Rp782
sg25
S'Ic-BL'
p783
sg27
S'SNsite'
p784
sg29
(lp785
F9.393
aF9.387
aF9.409
aF9.31
aF9.496
aF9.234
aF9.61
asg31
(lp786
F8.572
aF8.488
aF8.645999999999999
asg33
g7
(g11
S'\xd2\x11\xdf\xf4\x8c\xcf2\xc0'
p787
tp788
Rp789
sg37
(lp790
F-9.631
aF-9.54
aF-9.626
aF-9.856
aF-9.408
aF-10.095
aF-9.151
asg39
(lp791
F8.312
aF8.272
aF8.375
asg41
(lp792
F0.1221623
aF0.0241378
aF0.0240275
aF0.0262429
aF0.0709401
aF0.3173757
aF0.4119769
asg43
g7
(g11
S'\xea[\xb6U/p2\xc0'
p793
tp794
Rp795
sg47
S'10ciw'
p796
sg49
g7
(g11
S'\xd2\x11\xdf\xf4\x8c\xcf2\xc0'
p797
tp798
Rp799
sg53
(lp800
F8.545
aF8.475
aF8.618
asg55
(lp801
F8.4
aF8.34
aF8.496
asa(dp802
g2
(lp803
F8.58
aF8.553
aF8.607
asg4
(lp804
F-0.475
aF-0.472
aF-0.524
aF-0.73
aF-0.268
aF-1.408
aF-0.034
asg6
g7
(g11
S'\x8fF\xd3\x13\x95hk@'
p805
tp806
Rp807
sg17
(lp808
F0.504
aF0.443
aF0.569
asg21
g7
(g11
S'U\xc0=\xcf\x9f6\xaa?'
p809
tp810
Rp811
sg25
S'uncertain'
p812
sg27
S'nuc'
p813
sg29
(lp814
F8.723
aF8.72
aF8.751
aF8.674
aF8.797
aF8.631
aF9.033
asg55
(lp815
F8.302
aF8.289
aF8.315
asg33
g7
(g11
S'\x1bA\xe2)\xc6\xde1\xc0'
p816
tp817
Rp818
sg37
(lp819
F-9.211
aF-9.19
aF-9.278
aF-9.496
aF-9.014
aF-10.328
aF-8.77
asg39
(lp820
F8.246
aF8.236
aF8.255
asg41
(lp821
F0.0738103
aF0.01212
aF0.0134158
aF0.0153057
aF0.0501862
aF0.1091219
aF0.2096196
asg43
g7
(g11
S'\xa4pv\xef#\x911\xc0'
p822
tp823
Rp824
sg47
S'10bip'
p825
sg49
g7
(g11
S'\x1bA\xe2)\xc6\xde1\xc0'
p826
tp827
Rp828
sg53
(lp829
F8.378
aF8.328
aF8.42
asg19
(lp830
F20.02393
aF18.834667
aF18.591355
aF18.372447
aF18.292532
aF20.520368
aF20.997684
asa(dp831
g2
(lp832
F7.856
aF7.772
aF7.925
asg4
(lp833
F-0.798
aF-0.647
aF-0.817
aF-1.158
aF-0.515
aF-1.35
aF-0.307
asg6
g7
(g11
S'\xc7\x9c%\xd0\x91\xces@'
p834
tp835
Rp836
sg17
(lp837
F0.09
aF0.077
aF0.103
asg19
(lp838
F21.649271
aF21.200615
aF21.125713
aF20.830594
aF20.722359
aF22.247169
aF21.755134
asg21
g7
(g11
S'i\x8a\x00\xa7w\xf1\xb2?'
p839
tp840
Rp841
sg25
S'Ic'
p842
sg27
S'SNsite'
p843
sg29
(lp844
F7.864
aF7.813
aF7.905
aF7.688
aF8.129
aF7.53
aF8.413
asg31
(lp845
F7.977
aF7.965000000000001
aF7.988
asg37
(lp846
F-8.742
aF-8.94
aF-8.728
aF-9.117
aF-8.326
aF-9.421
aF-8.038
asg33
g7
(g11
S'\xf2/It\xd7M0\xc0'
p847
tp848
Rp849
sg41
(lp850
F0.1989502
aF0.0576604
aF0.0777475
aF0.0924733
aF0.2682621
aF0.4020322
aF0.4957792
asg43
g7
(g11
S'\xa5\xd1\x02\xc8\xb3\r0\xc0'
p851
tp852
Rp853
sg47
S'11rka'
p854
sg49
g7
(g11
S'\xf2/It\xd7M0\xc0'
p855
tp856
Rp857
sg53
(lp858
F7.726
aF7.551
aF7.843
asg55
(lp859
F8.018
aF7.992000000000001
aF8.040000000000001
asa(dp860
g2
(lp861
F8.814
aF8.788
aF8.838
asg4
(lp862
F-0.108
aF-0.134
aF-0.103
aF-0.257
aF0.048
aF-0.446
aF0.208
asg6
g7
(g11
S'\xd3\xfa\xe5\xe9\x90.c@'
p863
tp864
Rp865
sg17
(lp866
F0.173
aF0.08999999999999998
aF0.263
asg19
(lp867
F18.085779
aF16.971172
aF16.553657
aF16.339115
aF16.123413
aF18.874261
aF19.277793
asg21
g7
(g11
S'\x08\xaf]\xdapX\xa2?'
p868
tp869
Rp870
sg25
S'Ic'
p871
sg27
S'SNsite'
p872
sg29
(lp873
F9.433
aF9.44
aF9.449
aF9.374
aF9.514
aF9.319
aF9.617
asg31
(lp874
F8.751
aF8.683
aF8.812999999999999
asg33
g7
(g11
S'\xedUN\xb7o\xf52\xc0'
p875
tp876
Rp877
sg37
(lp878
F-9.553
aF-9.54
aF-9.558
aF-9.717
aF-9.392
aF-9.932
aF-9.234
asg39
(lp879
F8.431
aF8.417
aF8.447
asg41
(lp880
F0.0304461
aF0.0057212
aF0.005065
aF0.006966
aF0.015583
aF0.0629217
aF0.1064712
asg43
g7
(g11
S'5\xb8#\x1a\xd8\x992\xc0'
p881
tp882
Rp883
sg47
S'10bhu'
p884
sg49
g7
(g11
S'\xedUN\xb7o\xf52\xc0'
p885
tp886
Rp887
sg53
(lp888
F8.657
aF8.62
aF8.693
asg55
(lp889
F8.579
aF8.559000000000001
aF8.600000000000001
asa(dp890
g2
(lp891
F8.511
aF8.495
aF8.527
asg4
(lp892
F0.229
aF0.227
aF0.258
aF0.165
aF0.328
aF0.09
aF0.596
asg6
g7
(g11
S'\xd0\xd2d\xc7\xbc\xc2W@'
p893
tp894
Rp895
sg17
(lp896
F0.0
aF0.0
aF0.0
asg19
(lp897
F15.930862
aF15.078083
aF14.789599
aF14.64387
aF14.559189
aF16.353211
aF16.627773
asg21
g7
(g11
S'\x83k\xee\xe8\x7f\xb9\x96?'
p898
tp899
Rp900
sg25
S'Ic'
p901
sg27
S'SNsite'
p902
sg29
(lp903
F9.442
aF9.44
aF9.46
aF9.403
aF9.504
aF9.364
aF9.609
asg31
(lp904
F8.402
aF8.261999999999999
aF8.434999999999999
asg33
g7
(g11
S'\xde\x92\x15H\xbf\xcf3\xc0'
p905
tp906
Rp907
sg37
(lp908
F-9.224
aF-9.29
aF-9.208
aF-9.299
aF-9.117
aF-9.416
aF-8.95
asg39
(lp909
F8.236
aF8.229000000000001
aF8.243
asg41
(lp910
F0.0093084
aF0.0019933
aF0.0022876
aF0.0023614
aF0.0078451
aF0.0032514
aF0.0130659
asg43
g7
(g11
S'/\x89[s~~3\xc0'
p911
tp912
Rp913
sg47
S'11bov'
p914
sg49
g7
(g11
S'\xde\x92\x15H\xbf\xcf3\xc0'
p915
tp916
Rp917
sg53
(lp918
F8.204
aF8.173
aF8.233
asg55
(lp919
F8.286
aF8.278
aF8.293999999999999
asa(dp920
g2
(lp921
F8.873
aF8.818
aF8.928999999999998
asg4
(lp922
F-0.459
aF-0.414
aF-0.469
aF-0.691
aF-0.257
aF-0.927
aF-0.053
asg6
g7
(g11
S'p6\xc3(\xa7\xc8k@'
p923
tp924
Rp925
sg17
(lp926
F0.0
aF0.0
aF0.058
asg19
(lp927
F19.534455
aF18.417288
aF17.913966
aF17.635363
aF17.469208
aF20.44317
aF20.816798
asg21
g7
(g11
S'\xac\xe4cw\x81\x92\xaa?'
p928
tp929
Rp930
sg25
S'Ic'
p931
sg27
S'SNsite'
p932
sg29
(lp933
F9.316
aF9.32
aF9.329
aF9.236
aF9.409
aF9.158
aF9.512
asg31
(lp934
F8.853
aF8.808
aF8.889
asg33
g7
(g11
S'tO1\xca.Q2\xc0'
p935
tp936
Rp937
sg37
(lp938
F-9.79
aF-9.78
aF-9.803
aF-10.021
aF-9.591
aF-10.29
aF-9.372
asg39
(lp939
F8.454
aF8.433
aF8.476
asg41
(lp940
F0.075099
aF0.0151931
aF0.0131701
aF0.0172844
aF0.0505958
aF0.0837941
aF0.1977813
asg43
g7
(g11
S'.\xb3k\t\xb7\xee1\xc0'
p941
tp942
Rp943
sg47
S'10lbo'
p944
sg49
g7
(g11
S'tO1\xca.Q2\xc0'
p945
tp946
Rp947
sg53
(lp948
F8.808
aF8.733
aF8.879999999999999
asg55
(lp949
F8.613
aF8.581999999999999
aF8.644
asa(dp950
g2
(lp951
F8.518
aF8.510000000000002
aF8.526
asg4
(lp952
F0.131
aF0.134
aF0.151
aF0.012
aF0.277
aF-0.094
aF0.443
asg6
g7
(g11
S'\x9a6b\x9f)\x11^@'
p953
tp954
Rp955
sg17
(lp956
F0.0
aF0.0
aF0.0
asg19
(lp957
F17.256024
aF16.616308
aF16.530862
aF16.457057
aF16.522394
aF17.710246
aF17.95309
asg21
g7
(g11
S'\x91\xd2l\x1e\x87\xc1\x9c?'
p958
tp959
Rp960
sg25
S'Ic-BL'
p961
sg27
S'SNsite'
p962
sg29
(lp963
F8.665
aF8.68
aF8.675
aF8.61
aF8.712
aF8.58
aF8.894
asg31
(lp964
F8.425
aF8.351
aF8.468
asg33
g7
(g11
S'}\x90rj\xd1\xc82\xc0'
p965
tp966
Rp967
sg37
(lp968
F-8.534
aF-8.67
aF-8.53
aF-8.688
aF-8.359
aF-8.824
aF-8.221
asg39
(lp969
F8.235
aF8.229999999999999
aF8.24
asg41
(lp970
F0.0136207
aF0.0040685
aF0.0048656
aF0.007113
aF0.0786937
aF0.0093194
aF0.0221545
asg43
g7
(g11
S']\xe3\xcbt\xd5\x872\xc0'
p971
tp972
Rp973
sg47
S'11qcj'
p974
sg49
g7
(g11
S'}\x90rj\xd1\xc82\xc0'
p975
tp976
Rp977
sg53
(lp978
F8.327
aF8.313
aF8.341
asg55
(lp979
F8.284
aF8.280000000000001
aF8.287
asa(dp980
g2
(lp981
F9.013
aF8.975
aF9.055
asg4
(lp982
F0.414
aF0.414
aF0.464
aF0.351
aF0.547
aF0.251
aF0.76
asg6
g7
(g11
S"\xe18'\n\xe0\xc9Y@"
p983
tp984
Rp985
sg17
(lp986
F0.03
aF0.0
aF0.14500000000000002
asg19
(lp987
F15.982897
aF14.580977
aF13.923894
aF13.567342
aF13.276189
aF16.613545
aF17.164884
asg21
g7
(g11
S'qs*\x19\x00\xaa\x98?'
p988
tp989
Rp990
sg25
S'Ic'
p991
sg27
S'SNsite'
p992
sg29
(lp993
F10.66
aF10.64
aF10.679
aF10.606
aF10.789
aF10.521
aF10.798
asg31
(lp994
F8.922
aF8.835
aF9.033000000000001
asg33
g7
(g11
S'oU\xe7\x9e\x88|4\xc0'
p995
tp996
Rp997
sg37
(lp998
F-10.235
aF-10.23
aF-10.22
aF-10.309
aF-10.134
aF-10.419
aF-10.001
asg39
(lp999
F8.498
aF8.478
aF8.521999999999998
asg41
(lp1000
F0.0100185
aF0.0015678
aF0.0014066
aF0.0017569
aF0.0038114
aF0.0071134
aF0.0169921
asg43
g7
(g11
S'q\xbd\xd1\xcd\xbe\r4\xc0'
p1001
tp1002
Rp1003
sg47
S'11ixk'
p1004
sg49
g7
(g11
S'oU\xe7\x9e\x88|4\xc0'
p1005
tp1006
Rp1007
sg53
(lp1008
F8.926
aF8.883000000000001
aF8.967
asg55
(lp1009
F8.679
aF8.652000000000001
aF8.71
asa(dp1010
g2
(lp1011
F8.522
aF8.518
aF8.526
asg4
(lp1012
F-0.375
aF-0.426
aF-0.32
aF-0.485
aF-0.135
aF-0.585
aF0.205
asg6
g7
(g11
S'\xa4\xa7\xd5`\x99Yc@'
p1013
tp1014
Rp1015
sg17
(lp1016
F0.111
aF0.104
aF0.11800000000000001
asg19
(lp1017
F18.741458
aF17.810796
aF17.521687
aF17.301336
aF17.13434
aF19.126516
aF19.596353
asg21
g7
(g11
S'R\xed\xd3\xf1\x98\x81\xa2?'
p1018
tp1019
Rp1020
sg25
S'Ic-BL'
p1021
sg27
S'nuc'
p1022
sg29
(lp1023
F8.93
aF8.907
aF8.961
aF8.87
aF9.029
aF8.819
aF9.212
asg31
(lp1024
F8.486
aF8.478000000000002
aF8.495000000000001
asg33
g7
(g11
S')\xb0\xa1\xcbW#2\xc0'
p1025
tp1026
Rp1027
sg37
(lp1028
F-9.313
aF-9.34
aF-9.286
aF-9.441
aF-9.131
aF-9.578
aF-8.869
asg39
(lp1029
F8.269
aF8.266
aF8.272
asg41
(lp1030
F0.0332775
aF0.0076349
aF0.0071546
aF0.0099298
aF0.0205134
aF0.0804179
aF0.1514128
asg43
g7
(g11
S'K\xac\xdc$\n\xd21\xc0'
p1031
tp1032
Rp1033
sg47
S'09sk'
p1034
sg49
g7
(g11
S')\xb0\xa1\xcbW#2\xc0'
p1035
tp1036
Rp1037
sg53
(lp1038
F8.368
aF8.361
aF8.374
asg55
(lp1039
F8.335
aF8.333
aF8.337000000000002
asa(dp1040
g2
(lp1041
F9.36
aF9.084999999999999
aF9.386999999999999
asg4
(lp1042
F0.339
aF0.344
aF0.402
aF0.334
aF0.344
aF0.191
aF0.763
asg6
g7
(g11
S'E\x11\xce~O\xb8E@'
p1043
tp1044
Rp1045
sg17
(lp1046
F0.37
aF0.277
aF0.472
asg19
(lp1047
F14.089795
aF12.688841
aF11.888023
aF11.507749
aF11.14796
aF14.657807
aF15.12119
asg21
g7
(g11
S'xADj\xda\xc5\x84?'
p1048
tp1049
Rp1050
sg25
S'other'
p1051
sg27
S'SNsite'
p1052
sg29
(lp1053
F10.794
aF10.8
aF10.802
aF10.789
aF10.798
aF10.787
aF10.856
asg31
(lp1054
F8.633
aF8.501
aF8.914
asg33
g7
(g11
S"\x0f\xba\xe1\x9b'\x804\xc0"
p1055
tp1056
Rp1057
sg37
(lp1058
F-10.464
aF-10.46
aF-10.405
aF-10.468
aF-10.46
aF-10.681
aF-10.042
asg39
(lp1059
F8.631
aF8.588000000000001
aF8.687
asg41
(lp1060
F0.0044285
aF0.0011843
aF0.0009458
aF0.0008589
aF0.0014093
aF0.0038203
aF0.006764
asg43
g7
(g11
S'\xea:\xb4c\xd9\x054\xc0'
p1061
tp1062
Rp1063
sg47
S'10acbu'
p1064
sg49
g7
(g11
S"\x0f\xba\xe1\x9b'\x804\xc0"
p1065
tp1066
Rp1067
sg53
(lp1068
F9.219
aF9.18
aF9.272
asg55
(lp1069
F8.882
aF8.823
aF8.978
asa(dp1070
g2
(lp1071
F8.984
aF8.973
aF8.995
asg4
(lp1072
F0.558
aF0.694
aF0.566
aF0.402
aF0.714
aF0.251
aF0.942
asg6
g7
(g11
S'\xebw\xbc$\t\x7fg@'
p1073
tp1074
Rp1075
sg17
(lp1076
F0.124
aF0.093
aF0.157
asg19
(lp1077
F17.340979
aF16.131857
aF15.545732
aF15.222159
aF14.973628
aF18.287075
aF19.011444
asg21
g7
(g11
S'b->\x05\xc0x\xa6?'
p1078
tp1079
Rp1080
sg25
S'Ic'
p1081
sg27
S'SNsite'
p1082
sg29
(lp1083
F10.308
aF10.307
aF10.327
aF10.237
aF10.415
aF10.173
aF10.495
asg31
(lp1084
F9.055
aF9.038
aF9.072
asg33
g7
(g11
S'\xad.\x00\xda\x13=4\xc0'
p1085
tp1086
Rp1087
sg37
(lp1088
F-9.773
aF-9.81
aF-9.766
aF-9.924
aF-9.621
aF-10.067
aF-9.473
asg39
(lp1089
F8.661
aF8.629999999999999
aF8.698
asg41
(lp1090
F0.0244462
aF0.003483
aF0.0043126
aF0.0029421
aF0.0096596
aF0.0462202
aF0.1076346
asg43
g7
(g11
S'\xe4*o\x94\xf9\xd33\xc0'
p1091
tp1092
Rp1093
sg47
S'12cjy'
p1094
sg49
g7
(g11
S'\xad.\x00\xda\x13=4\xc0'
p1095
tp1096
Rp1097
sg53
(lp1098
F9.145
aF9.121
aF9.174999999999999
asg55
(lp1099
F8.919
aF8.884
aF8.969000000000001
asa(dp1100
g2
(lp1101
F8.916
aF8.833
aF9.0
asg4
(lp1102
F0.535
aF0.589
aF0.531
aF0.421
aF0.616
aF0.315
aF0.718
asg6
g7
(g11
S'6\x07Cr\xd0\xb6g@'
p1103
tp1104
Rp1105
sg17
(lp1106
F0.104
aF0.0
aF0.31
asg19
(lp1107
F17.015864
aF15.287091
aF14.488456
aF14.107896
aF13.793731
aF17.687903
aF18.598048
asg21
g7
(g11
S'\xdc/\x9f\xac\x18\xae\xa6?'
p1108
tp1109
Rp1110
sg25
S'Ic'
p1111
sg27
S'SNsite'
p1112
sg29
(lp1113
F11.081
aF11.12
aF11.092
aF11.014
aF11.162
aF10.963
aF11.222
asg31
(lp1114
F8.812
aF8.674999999999999
aF8.892999999999999
asg33
g7
(g11
S'\xc1d\xa0\x04x\x1a5\xc0'
p1115
tp1116
Rp1117
sg37
(lp1118
F-10.558
aF-10.54
aF-10.566
aF-10.688
aF-10.455
aF-10.758
aF-10.378
asg39
(lp1119
F8.487
aF8.446
aF8.532
asg41
(lp1120
F0.0186699
aF0.0028394
aF0.0024094
aF0.002377
aF0.004801
aF0.0480061
aF0.0970479
asg43
g7
(g11
S' \xdb\xf7\x93V\xa04\xc0'
p1121
tp1122
Rp1123
sg47
S'10fmx'
p1124
sg49
g7
(g11
S'\xc1d\xa0\x04x\x1a5\xc0'
p1125
tp1126
Rp1127
sg53
(lp1128
F8.938
aF8.824
aF9.040000000000001
asg55
(lp1129
F8.662
aF8.602
aF8.727
asa(dp1130
g2
(lp1131
F8.903
aF8.901
aF8.906
asg4
(lp1132
F0.541
aF0.566
aF0.545
aF0.387
aF0.694
aF0.224
aF0.873
asg6
g7
(g11
S'\x18\xdf\r\xfb\x1cHm@'
p1133
tp1134
Rp1135
sg17
(lp1136
F0.604
aF0.592
aF0.616
asg19
(lp1137
F17.601905
aF16.397556
aF15.837769
aF15.433156
aF15.211339
aF18.561628
aF19.097365
asg21
g7
(g11
S'\x81\xed`\xc4>\x01\xac?'
p1138
tp1139
Rp1140
sg25
S'Ic'
p1141
sg27
S'SNsite'
p1142
sg29
(lp1143
F10.418
aF10.413
aF10.434
aF10.342
aF10.516
aF10.27
aF10.614
asg31
(lp1144
F8.861
aF8.852
aF8.870000000000001
asg33
g7
(g11
S'^\xf7\xc3\x87ls4\xc0'
p1145
tp1146
Rp1147
sg37
(lp1148
F-9.911
aF-9.98
aF-9.895
aF-10.046
aF-9.752
aF-10.191
aF-9.569
asg39
(lp1149
F8.505
aF8.495000000000001
aF8.516
asg41
(lp1150
F0.0155271
aF0.0041975
aF0.0033242
aF0.0034732
aF0.007617
aF0.059677
aF0.1159323
asg43
g7
(g11
S'\x92\x93\x1c\x86n\x0c4\xc0'
p1151
tp1152
Rp1153
sg47
S'12fgw'
p1154
sg49
g7
(g11
S'^\xf7\xc3\x87ls4\xc0'
p1155
tp1156
Rp1157
sg53
(lp1158
F9.031
aF9.028
aF9.034
asg55
(lp1159
F8.688
aF8.684000000000001
aF8.692
asa(dp1160
g2
(lp1161
F8.612
aF8.554
aF8.665000000000001
asg4
(lp1162
F0.773
aF1.02
aF0.677
aF0.26
aF1.108
aF-0.741
aF1.512
asg6
g7
(g11
S'\x9fRa7\x9c\x9bw@'
p1163
tp1164
Rp1165
sg17
(lp1166
F0.316
aF0.19
aF0.46099999999999997
asg19
(lp1167
F18.441745
aF17.36107
aF16.940824
aF16.674853
aF16.569653
aF19.534179
aF20.127553
asg21
g7
(g11
S'\xba\xf5\x9a\x1e\x14\x94\xb6?'
p1168
tp1169
Rp1170
sg25
S'other'
p1171
sg27
S'SNsite'
p1172
sg29
(lp1173
F10.037
aF10.04
aF10.053
aF9.977
aF10.109
aF9.907
aF10.272
asg31
(lp1174
F8.552
aF8.45
aF8.684
asg33
g7
(g11
S'\xe1\x08\xad\x19Z\x864\xc0'
p1175
tp1176
Rp1177
sg37
(lp1178
F-9.286
aF-9.1
aF-9.378
aF-9.769
aF-8.955
aF-10.859
aF-8.544
asg39
(lp1179
F8.306
aF8.283
aF8.325999999999999
asg41
(lp1180
F0.0776473
aF0.0115128
aF0.0127667
aF0.0146403
aF0.0511175
aF0.1246188
aF0.3388111
asg43
g7
(g11
S'3}Kw\x8a*4\xc0'
p1181
tp1182
Rp1183
sg47
S'09dzt'
p1184
sg49
g7
(g11
S'\xe1\x08\xad\x19Z\x864\xc0'
p1185
tp1186
Rp1187
sg53
(lp1188
F8.556
aF8.456
aF8.645999999999999
asg55
(lp1189
F8.391
aF8.358
aF8.422
asa(dp1190
g2
(lp1191
F8.089
aF7.678000000000001
aF8.690000000000001
asg4
(lp1192
F-1.085
aF-1.195
aF-1.084
aF-1.287
aF-0.852
aF-1.488
aF-0.657
asg6
g7
(g11
S'\xe6z\xc6\x9c\x05\x17x@'
p1193
tp1194
Rp1195
sg17
(lp1196
F0.0
aF0.0
aF0.0
asg19
(lp1197
F22.562078
aF21.883853
aF21.509492
aF22.161665
aF21.208348
aF21.215451
aF21.845703
asg21
g7
(g11
S'\x9e\x95\xb4\xe2\x1b\n\xb7?'
p1198
tp1199
Rp1200
sg25
S'Ic-BL'
p1201
sg27
S'SNsite'
p1202
sg29
(lp1203
F7.526
aF7.493
aF7.542
aF7.342
aF7.718
aF7.184
aF7.979
asg31
(lp1204
F8.033
aF7.991999999999999
aF8.078999999999999
asg33
g7
(g11
S'\x954\x11\xb6\xc1\x0b0\xc0'
p1205
tp1206
Rp1207
sg37
(lp1208
F-8.627
aF-8.69
aF-8.633
aF-8.944
aF-8.292
aF-9.309
aF-8.043
asg39
(lp1209
F8.183
aF8.17
aF8.201
asg41
(lp1210
F0.3716781
aF0.0791649
aF0.0860464
aF0.2082902
aF0.3943995
aF0.4328125
aF0.4931072
asg43
g7
(g11
S'*\xe1J\x9c>g/\xc0'
p1211
tp1212
Rp1213
sg47
S'10qts'
p1214
sg49
g7
(g11
S'\x954\x11\xb6\xc1\x0b0\xc0'
p1215
tp1216
Rp1217
sg53
(lp1218
F8.108
aF7.7540000000000004
aF8.402000000000001
asg55
(lp1219
F8.081
aF7.938
aF8.161999999999999
asa(dp1220
g2
(lp1221
F8.87
aF8.83
aF8.908999999999999
asg4
(lp1222
F-0.574
aF-0.647
aF-0.564
aF-0.697
aF-0.427
aF-0.821
aF-0.309
asg6
g7
(g11
S"\x87\x95\xb8+'i_@"
p1223
tp1224
Rp1225
sg17
(lp1226
F0.017
aF0.0
aF0.139
asg19
(lp1227
F18.453889
aF17.333375
aF16.808592
aF16.544904
aF16.415569
aF19.287514
aF19.688266
asg21
g7
(g11
S'\x0fB@\xbe\x84\n\x9e?'
p1228
tp1229
Rp1230
sg25
S'Ic'
p1231
sg27
S'nuc'
p1232
sg29
(lp1233
F9.276
aF9.28
aF9.29
aF9.2
aF9.364
aF9.127
aF9.461
asg31
(lp1234
F8.759
aF8.628
aF8.907
asg33
g7
(g11
S'\xa1\x7f[\x97\x8d)2\xc0'
p1235
tp1236
Rp1237
sg37
(lp1238
F-9.867
aF-9.78
aF-9.86
aF-10.007
aF-9.717
aF-10.139
aF-9.594
asg39
(lp1239
F8.464
aF8.441
aF8.488
asg41
(lp1240
F0.0464187
aF0.0070831
aF0.0070953
aF0.0079709
aF0.0244528
aF0.0371891
aF0.0549957
asg43
g7
(g11
S'\xae"\x1c\x9d]\xc51\xc0'
p1241
tp1242
Rp1243
sg47
S'12hvv'
p1244
sg49
g7
(g11
S'\xa1\x7f[\x97\x8d)2\xc0'
p1245
tp1246
Rp1247
sg53
(lp1248
F8.735
aF8.681999999999999
aF8.789
asg55
(lp1249
F8.627
aF8.595
aF8.662
asa(dp1250
g2
(lp1251
F8.909
aF8.892000000000001
aF8.927000000000001
asg6
g7
(g11
S'b\x88MceDZ@'
p1252
tp1253
Rp1254
sg17
(lp1255
F0.631
aF0.544
aF0.728
asg21
g7
(g11
S'\x18\xea\xb0\xc2-\x1f\x99?'
p1256
tp1257
Rp1258
sg25
S'Ic'
p1259
sg27
S'HII1'
p1260
sg29
(lp1261
F11.405
aF11.293
aF11.41
aF11.298
aF11.502
aF11.245
aF11.573
asg31
(lp1262
F9.181
aF9.12
aF9.258999999999999
asg37
(lp1263
F-10.251
aF-10.35
aF-10.222
aF-10.366
aF-10.07
aF-10.494
aF-9.916
asg33
g7
(g11
S'\x05W\xf9-\xce\xee5\xc0'
p1264
tp1265
Rp1266
sg41
(lp1267
F0.0109078
aF0.0009072
aF0.0011123
aF0.0010603
aF0.0023109
aF0.0260372
aF0.0544175
asg43
g7
(g11
S'\xde\x10V7\x1au5\xc0'
p1268
tp1269
Rp1270
sg47
S'10yow'
p1271
sg49
g7
(g11
S'\x05W\xf9-\xce\xee5\xc0'
p1272
tp1273
Rp1274
sg4
(lp1275
F1.187
aF1.09
aF1.195
aF1.059
aF1.332
aF0.901
aF1.46
asg19
(lp1276
F14.68753
aF13.174533
aF12.381235
aF11.961311
aF11.684728
aF16.158887
aF17.108453
asa(dp1277
g2
(lp1278
F8.677
aF8.619
aF8.725
asg4
(lp1279
F0.176
aF0.181
aF0.243
aF0.171
aF0.509
aF0.094
aF0.519
asg6
g7
(g11
S'\xf0\x92q\xf5\x9d\x0eP@'
p1280
tp1281
Rp1282
sg17
(lp1283
F0.07
aF0.006000000000000005
aF0.137
asg19
(lp1284
F16.292655
aF15.277734
aF14.754886
aF14.49793
aF14.340172
aF16.810085
aF17.845123
asg21
g7
(g11
S'\xaa\rND\xbf\xb6\x8e?'
p1285
tp1286
Rp1287
sg25
S'Ic-BL'
p1288
sg27
S'SNsite'
p1289
sg29
(lp1290
F9.462
aF9.467
aF9.539
aF9.456
aF9.814
aF9.454
aF9.825
asg31
(lp1291
F8.811
aF8.756
aF8.862
asg33
g7
(g11
S'\xd6\x8b\x05l\xca\xc22\xc0'
p1292
tp1293
Rp1294
sg37
(lp1295
F-9.306
aF-9.3
aF-9.308
aF-9.313
aF-9.302
aF-9.514
aF-9.3
asg39
(lp1296
F8.311
aF8.295
aF8.325
asg41
(lp1297
F0.0146979
aF0.0032467
aF0.0028389
aF0.0029662
aF0.0078341
aF0.0143561
aF0.0245455
asg43
g7
(g11
S'\xcf\x99\xfa"\xc2^2\xc0'
p1298
tp1299
Rp1300
sg47
S'10vgv'
p1301
sg49
g7
(g11
S'\xd6\x8b\x05l\xca\xc22\xc0'
p1302
tp1303
Rp1304
sg53
(lp1305
F8.852
aF8.745000000000001
aF8.956
asg55
(lp1306
F8.399
aF8.375
aF8.42
asa(dp1307
g2
(lp1308
F8.451
aF8.438
aF8.464
asg4
(lp1309
F0.01
aF-0.099
aF0.078
aF-0.134
aF0.334
aF-0.241
aF0.657
asg6
g7
(g11
S'O\x13\n\xc9D_|@'
p1310
tp1311
Rp1312
sg17
(lp1313
F0.091
aF0.067
aF0.11599999999999999
asg19
(lp1314
F19.685368
aF18.960997
aF18.623673
aF18.391346
aF18.385859
aF19.939145
aF20.202605
asg21
g7
(g11
S'\xb2\xbe\x81\xc9\x8d"\xbb?'
p1315
tp1316
Rp1317
sg25
S'uncertain'
p1318
sg27
S'SNsite'
p1319
sg29
(lp1320
F9.389
aF9.347
aF9.425
aF9.303
aF9.546
aF9.237
aF9.755
asg31
(lp1321
F8.457
aF8.450000000000001
aF8.461
asg33
g7
(g11
S'^\x85\xab\xd5\xf5R3\xc0'
p1322
tp1323
Rp1324
sg37
(lp1325
F-9.382
aF-9.42
aF-9.353
aF-9.542
aF-9.187
aF-9.695
aF-8.862
asg39
(lp1326
F8.186
aF8.178
aF8.193999999999999
asg41
(lp1327
F0.1015155
aF0.0175116
aF0.0198748
aF0.0230132
aF0.0896993
aF0.1783119
aF0.3099813
asg43
g7
(g11
S'\xcd\x06\xfc(\xcb\xfd2\xc0'
p1328
tp1329
Rp1330
sg47
S'12hni'
p1331
sg49
g7
(g11
S'^\x85\xab\xd5\xf5R3\xc0'
p1332
tp1333
Rp1334
sg53
(lp1335
F8.373
aF8.349
aF8.398
asg55
(lp1336
F8.211
aF8.205
aF8.217
asa(dp1337
g2
(lp1338
F8.95
aF8.931
aF8.969
asg4
(lp1339
F0.793
aF0.706
aF0.797
aF0.662
aF0.922
aF0.468
aF1.105
asg6
g7
(g11
S'\x7f\xaa\xe8\x1dMZV@'
p1340
tp1341
Rp1342
sg17
(lp1343
F0.411
aF0.369
aF0.45899999999999996
asg19
(lp1344
F15.402569
aF14.255262
aF13.742772
aF13.418945
aF13.198639
aF16.60209
aF17.372011
asg21
g7
(g11
S'vQ\xf4\xc0\xc7`\x95?'
p1345
tp1346
Rp1347
sg25
S'Ic'
p1348
sg27
S'SNsite'
p1349
sg29
(lp1350
F10.326
aF10.32
aF10.34
aF10.276
aF10.393
aF10.219
aF10.509
asg31
(lp1351
F8.986
aF8.909
aF9.09
asg33
g7
(g11
S'\xcc\xb3:\xden\x804\xc0'
p1352
tp1353
Rp1354
sg37
(lp1355
F-9.548
aF-9.59
aF-9.549
aF-9.68
aF-9.428
aF-9.856
aF-9.244
asg39
(lp1356
F8.614
aF8.587000000000002
aF8.645000000000001
asg41
(lp1357
F0.0153678
aF0.0015627
aF0.0045464
aF0.0028472
aF0.0050136
aF0.0260542
aF0.0546506
asg43
g7
(g11
S'\xa6\xa8\xd3\r;\x1d4\xc0'
p1358
tp1359
Rp1360
sg47
S'10zcn'
p1361
sg49
g7
(g11
S'\xcc\xb3:\xden\x804\xc0'
p1362
tp1363
Rp1364
sg53
(lp1365
F9.115
aF9.087
aF9.146
asg55
(lp1366
F8.851
aF8.821000000000002
aF8.889000000000001
asa(dp1367
g2
(lp1368
F8.806
aF8.799
aF8.812999999999999
asg4
(lp1369
F0.576
aF0.612
aF0.599
aF0.485
aF0.668
aF0.418
aF0.971
asg6
g7
(g11
S'\xfb\x0bW\xe0b\xb6d@'
p1370
tp1371
Rp1372
sg17
(lp1373
F0.14
aF0.13
aF0.15000000000000002
asg19
(lp1374
F16.49486
aF15.417916
aF15.015683
aF14.744756
aF14.58457
aF16.854162
aF17.264944
asg21
g7
(g11
S'\x90N]\xf9,\xcf\xa3?'
p1375
tp1376
Rp1377
sg25
S'Ic'
p1378
sg27
S'HII2'
p1379
sg29
(lp1380
F10.225
aF10.267
aF10.233
aF10.126
aF10.304
aF10.07
aF10.434
asg31
(lp1381
F8.827
aF8.82
aF8.834999999999999
asg33
g7
(g11
S'\x9e\x0c\xea\xaf\xbe\xad4\xc0'
p1382
tp1383
Rp1384
sg37
(lp1385
F-9.657
aF-9.69
aF-9.641
aF-9.763
aF-9.524
aF-9.868
aF-9.307
asg39
(lp1386
F8.426
aF8.42
aF8.432
asg41
(lp1387
F0.0126038
aF0.0024695
aF0.0078642
aF0.002765
aF0.0066634
aF0.0237325
aF0.0404469
asg43
g7
(g11
S'\xa4x\xa2\x8c`S4\xc0'
p1388
tp1389
Rp1390
sg47
S'10tqi'
p1391
sg49
g7
(g11
S'\x9e\x0c\xea\xaf\xbe\xad4\xc0'
p1392
tp1393
Rp1394
sg53
(lp1395
F8.758
aF8.748
aF8.767999999999999
asg55
(lp1396
F8.569
aF8.566
aF8.572000000000001
asa(dp1397
g2
(lp1398
F9.022
aF8.995000000000001
aF9.051
asg4
(lp1399
F0.951
aF0.892
aF0.959
aF0.825
aF1.08
aF0.688
aF1.244
asg6
g7
(g11
S'\x1a\x1cg\xcbPVd@'
p1400
tp1401
Rp1402
sg17
(lp1403
F0.681
aF0.6100000000000001
aF0.755
asg19
(lp1404
F15.971321
aF14.711742
aF13.996809
aF13.707664
aF13.451629
aF17.165247
aF17.945518
asg21
g7
(g11
S'9*7QKs\xa3?'
p1405
tp1406
Rp1407
sg25
S'Ic'
p1408
sg27
S'HII'
p1409
sg29
(lp1410
F10.868
aF10.813
aF10.88
aF10.786
aF10.962
aF10.725
aF11.039
asg31
(lp1411
F8.828
aF8.665999999999999
aF9.029
asg33
g7
(g11
S'\x88\xc9Xq\\X5\xc0'
p1412
tp1413
Rp1414
sg37
(lp1415
F-9.937
aF-9.92
aF-9.927
aF-10.055
aF-9.81
aF-10.189
aF-9.624
asg39
(lp1416
F8.526
aF8.506
aF8.549
asg41
(lp1417
F0.0231751
aF0.0025295
aF0.0020634
aF0.0023387
aF0.0045894
aF0.0273915
aF0.0575579
asg43
g7
(g11
S'\xd2\x9d_\xf6\xef\xe44\xc0'
p1418
tp1419
Rp1420
sg47
S'10osn'
p1421
sg49
g7
(g11
S'\x88\xc9Xq\\X5\xc0'
p1422
tp1423
Rp1424
sg53
(lp1425
F9.106
aF9.079
aF9.135
asg55
(lp1426
F8.719
aF8.693999999999999
aF8.747
asa(dp1427
g2
(lp1428
F9.066
aF9.05
aF9.083
asg4
(lp1429
F1.107
aF1.254
aF1.01
aF0.869
aF1.258
aF-0.816
aF1.4
asg6
g7
(g11
S'\x98A\x9ab\xad\xf7^@'
p1430
tp1431
Rp1432
sg17
(lp1433
F0.693
aF0.6529999999999999
aF0.735
asg19
(lp1434
F14.163213
aF12.993623
aF12.603796
aF12.284901
aF12.023144
aF15.334782
aF15.817426
asg21
g7
(g11
S'7\xa9h\xac\xfd\x9d\x9d?'
p1435
tp1436
Rp1437
sg25
S'Ic'
p1438
sg27
S'SNsite'
p1439
sg29
(lp1440
F10.945
aF10.92
aF10.972
aF10.872
aF11.094
aF10.801
aF11.171
asg31
(lp1441
F9.046
aF9.007
aF9.093
asg33
g7
(g11
S'\\c\xb0\x04\xa1x6\xc0'
p1442
tp1443
Rp1444
sg37
(lp1445
F-9.858
aF-9.76
aF-9.968
aF-10.134
aF-9.683
aF-11.995
aF-9.528
asg39
(lp1446
F8.594
aF8.575
aF8.615
asg41
(lp1447
F0.0047235
aF0.0014096
aF0.0011785
aF0.0011818
aF0.0019689
aF0.0048163
aF0.0089128
asg43
g7
(g11
S'\xf2\xd3\xa5\\A\x1f6\xc0'
p1448
tp1449
Rp1450
sg47
S'11hyg'
p1451
sg49
g7
(g11
S'\\c\xb0\x04\xa1x6\xc0'
p1452
tp1453
Rp1454
sg53
(lp1455
F9.185
aF9.167
aF9.202
asg55
(lp1456
F8.82
aF8.802
aF8.84
asa(dp1457
g2
(lp1458
F9.378
aF9.366
aF9.388
asg4
(lp1459
F1.121
aF1.347
aF1.14
aF0.909
aF1.346
aF0.579
aF1.888
asg6
g7
(g11
S'\x8bd\xe0m\xf0\xbfy@'
p1460
tp1461
Rp1462
sg17
(lp1463
F0.222
aF0.195
aF0.249
asg19
(lp1464
F18.944541
aF17.700714
aF17.106712
aF16.705779
aF16.463914
aF20.33242
aF21.478916
asg21
g7
(g11
S'fl\xe8f\x7f\xa0\xb8?'
p1465
tp1466
Rp1467
sg25
S'Ic'
p1468
sg27
S'SNsite'
p1469
sg29
(lp1470
F10.396
aF10.373
aF10.416
aF10.34
aF10.466
aF10.295
aF10.655
asg31
(lp1471
F9.136
aF9.103
aF9.174999999999999
asg33
g7
(g11
S'U\xb8\xc66\xae_4\xc0'
p1472
tp1473
Rp1474
sg37
(lp1475
F-9.283
aF-9.28
aF-9.274
aF-9.493
aF-9.069
aF-9.829
aF-8.474
asg39
(lp1476
F8.63
aF8.609
aF8.654
asg41
(lp1477
F0.0370611
aF0.0066899
aF0.0056287
aF0.0055778
aF0.0125603
aF0.1352157
aF0.34141
asg43
g7
(g11
S'\xc1\x8a\xf7\\\xf2\xf53\xc0'
p1478
tp1479
Rp1480
sg47
S'10ysd'
p1481
sg49
g7
(g11
S'U\xb8\xc66\xae_4\xc0'
p1482
tp1483
Rp1484
sg53
(lp1485
F9.209
aF9.196
aF9.222999999999999
asg55
(lp1486
F8.875
aF8.854
aF8.899
asa(dp1487
g2
(lp1488
F8.323
aF8.295
aF8.349
asg4
(lp1489
F-1.017
aF-1.137
aF-1.113
aF-1.453
aF-0.635
aF-3.031
aF-0.275
asg6
g7
(g11
S'\x1d\x1e>\xc0u\xe0d@'
p1490
tp1491
Rp1492
sg17
(lp1493
F0.333
aF0.319
aF0.34800000000000003
asg19
(lp1494
F19.305956
aF18.120808
aF17.751152
aF17.599175
aF17.505112
aF20.455426
aF20.439829
asg21
g7
(g11
S'\xe7\xc2H/j\xf7\xa3?'
p1495
tp1496
Rp1497
sg25
S'Ic-BL'
p1498
sg27
S'SNsite'
p1499
sg29
(lp1500
F8.88
aF8.88
aF8.901
aF8.806
aF8.981
aF8.754
aF9.127
asg31
(lp1501
F8.28
aF8.26
aF8.299
asg33
g7
(g11
S'g\x9cZ\xb52\xfe1\xc0'
p1502
tp1503
Rp1504
sg37
(lp1505
F-9.889
aF-9.98
aF-9.992
aF-10.376
aF-9.534
aF-11.731
aF-9.186
asg39
(lp1506
F8.219
aF8.209
aF8.226999999999999
asg41
(lp1507
F0.0824252
aF0.0113402
aF0.0137633
aF0.0181936
aF0.0607107
aF0.1818563
aF0.1560468
asg43
g7
(g11
S'\xb8\xdb\xa6\xd0p\xa61\xc0'
p1508
tp1509
Rp1510
sg47
S'11lbm'
p1511
sg49
g7
(g11
S'g\x9cZ\xb52\xfe1\xc0'
p1512
tp1513
Rp1514
sg53
(lp1515
F8.035
aF7.985
aF8.084
asg55
(lp1516
F8.26
aF8.249
aF8.27
asa(dp1517
g2
(lp1518
F8.444
aF8.405000000000001
aF8.478000000000002
asg4
(lp1519
F-0.278
aF-0.321
aF-0.227
aF-0.328
aF-0.101
aF-0.391
aF0.061
asg6
g7
(g11
S'\x8b\x01\x1e\xab\xbd\xce\x83@'
p1520
tp1521
Rp1522
sg17
(lp1523
F0.0
aF0.0
aF0.0
asg19
(lp1524
F21.196784
aF20.386483
aF19.979411
aF19.841894
aF19.906003
aF20.913495
aF21.046597
asg21
g7
(g11
S'0\x9ck\x98\xa1\xf1\xc2?'
p1525
tp1526
Rp1527
sg25
S'Ic-BL'
p1528
sg27
S'SNsite'
p1529
sg29
(lp1530
F9.07
aF9.093
aF9.11
aF8.929
aF9.308
aF8.83
aF9.502
asg31
(lp1531
F8.229
aF8.187999999999999
aF8.408
asg33
g7
(g11
S'"\xe8\xd0\xb9\x98\x9f2\xc0'
p1532
tp1533
Rp1534
sg37
(lp1535
F-9.342
aF-9.29
aF-9.344
aF-9.463
aF-9.216
aF-9.813
aF-9.017
asg39
(lp1536
F8.228
aF8.215
aF8.238999999999999
asg41
(lp1537
F0.1476384
aF0.0359695
aF0.0344583
aF0.0476333
aF0.1879952
aF0.0157162
aF0.0338591
asg43
g7
(g11
S'&\xcc\xa5S\xd7D2\xc0'
p1538
tp1539
Rp1540
sg47
S'11gcj'
p1541
sg49
g7
(g11
S'"\xe8\xd0\xb9\x98\x9f2\xc0'
p1542
tp1543
Rp1544
sg53
(lp1545
F8.257
aF8.18
aF8.328999999999999
asg55
(lp1546
F8.273
aF8.256
aF8.289
asa(dp1547
g2
(lp1548
F7.941
aF7.889
aF7.987
asg4
(lp1549
F-1.654
aF-1.627
aF-1.627
aF-1.744
aF-1.519
aF-1.774
aF-1.307
asg6
g7
(g11
S'\xa8\x03r\xec\r|M@'
p1550
tp1551
Rp1552
sg17
(lp1553
F0.081
aF0.059000000000000004
aF0.10300000000000001
asg19
(lp1554
F18.957605
aF18.781959
aF18.804049
aF18.860452
aF18.610389
aF19.409219
aF19.341373
asg21
g7
(g11
S'.\xc8\x96\xe5\xeb2\x8c?'
p1555
tp1556
Rp1557
sg25
S'uncertain'
p1558
sg27
S'SNsite'
p1559
sg29
(lp1560
F6.952
aF6.947
aF6.961
aF6.874
aF7.033
aF6.798
aF7.106
asg31
(lp1561
F7.943
aF7.89
aF7.989
asg37
(lp1562
F-8.634
aF-8.55
aF-8.593
aF-8.769
aF-8.407
aF-8.841
aF-8.212
asg33
g7
(g11
S'\xf0\xb0N\xe7o$.\xc0'
p1563
tp1564
Rp1565
sg41
(lp1566
F0.1941508
aF0.0146432
aF0.0184401
aF0.0303176
aF0.0752725
aF0.0052786
aF0.0224912
asg43
g7
(g11
S'\xea\xe7\xd8\xb4\xb3\xb3-\xc0'
p1567
tp1568
Rp1569
sg47
S'12gzk'
p1570
sg49
g7
(g11
S'\xf0\xb0N\xe7o$.\xc0'
p1571
tp1572
Rp1573
sg53
(lp1574
F8.048
aF7.957
aF8.12
asg55
(lp1575
F8.071
aF8.054
aF8.086
asa.