(lp0
(dp1
S'M08_N2Ha'
p2
(lp3
F8.118
aF8.116
aF8.120000000000001
asS'E(B-V)'
p4
(lp5
F0.471
aF0.46499999999999997
aF0.477
asS'SNtype'
p6
S'Ic-BL'
p7
sS'region'
p8
S'SNsite'
p9
sS'KD02comb'
p10
(lp11
F8.075
aF8.068
aF8.081999999999999
asS'PTFname'
p12
S'10xem'
p13
sS'PP04_O3N2'
p14
(lp15
F8.082
aF8.081000000000001
aF8.083
asa(dp16
g2
(lp17
F8.849
aF8.822000000000001
aF8.878
asg4
(lp18
F0.12
aF0.076
aF0.16299999999999998
asg6
S'Ic'
p19
sg8
S'SNsite'
p20
sg10
(lp21
F8.884
aF8.853
aF8.916
asS'M13_O3N2'
p22
(lp23
F8.484
aF8.47
aF8.498
asg12
S'10wal'
p24
sS'D13_N2S2_O3S2'
p25
(lp26
F8.772
aF8.728
aF8.812
asg14
(lp27
F8.656
aF8.641
aF8.672
asa(dp28
g2
(lp29
F8.941
aF8.903
aF8.976
asg4
(lp30
F0.468
aF0.41900000000000004
aF0.513
asg6
S'Ic'
p31
sg8
S'HII3'
p32
sg10
(lp33
F8.802
aF8.748
aF8.859
asg22
(lp34
F8.441
aF8.430000000000001
aF8.452
asg12
S'09iqd'
p35
sg25
(lp36
F8.996
aF8.949
aF9.040000000000001
asg14
(lp37
F8.594
aF8.581
aF8.606
asa(dp38
g2
(lp39
F8.458
aF8.376
aF8.523
asg4
(lp40
F0.0
aF0.0
aF0.0
asg6
S'Ic'
p41
sg8
S'SNsite'
p42
sg10
(lp43
F8.479
aF8.12
aF8.558
asg22
(lp44
F8.238
aF8.215
aF8.256
asg12
S'10xik'
p45
sg25
(lp46
F8.282
aF8.128
aF8.399000000000001
asg14
(lp47
F8.288
aF8.254
aF8.315
asa(dp48
g2
(lp49
F8.528
aF8.508000000000001
aF8.547
asg4
(lp50
F0.21
aF0.185
aF0.237
asg6
S'Ic'
p51
sg8
S'SNsite'
p52
sg10
(lp53
F8.541
aF8.49
aF8.589
asg22
(lp54
F8.249
aF8.242
aF8.255
asg12
S'10ood'
p55
sg25
(lp56
F8.51
aF8.479
aF8.541
asg14
(lp57
F8.304
aF8.295
aF8.312
asa(dp58
g2
(lp59
F8.331
aF8.289
aF8.368
asg4
(lp60
F0.032
aF0.012
aF0.053000000000000005
asg6
S'uncertain'
p61
sg8
S'SNsite'
p62
sg10
(lp63
F8.479
aF8.418
aF8.527999999999999
asg22
(lp64
F8.191
aF8.178
aF8.203000000000001
asg12
S'10svt'
p65
sg25
(lp66
F8.296
aF8.216999999999999
aF8.366
asg14
(lp67
F8.218
aF8.202
aF8.233
asa(dp68
g2
(lp69
F8.974
aF8.964
aF8.985
asg4
(lp70
F0.354
aF0.32799999999999996
aF0.381
asg6
S'Ic'
p71
sg8
S'SNsite'
p72
sg10
(lp73
F9.099
aF9.047
aF9.166
asg22
(lp74
F8.63
aF8.608
aF8.653
asg12
S'12ktu'
p75
sg25
(lp76
F9.201
aF9.185
aF9.218
asg14
(lp77
F8.874
aF8.855
aF8.896
asa(dp78
g2
(lp79
F8.971
aF8.967
aF8.975
asg4
(lp80
F0.495
aF0.486
aF0.504
asg6
S'Ic'
p81
sg8
S'SNsite'
p82
sg10
(lp83
F8.912
aF8.905000000000001
aF8.918000000000001
asg22
(lp84
F8.514
aF8.503
aF8.524999999999999
asg12
S'12jxd'
p85
sg25
(lp86
F8.985
aF8.979999999999999
aF8.988999999999999
asg14
(lp87
F8.701
aF8.699
aF8.703000000000001
asa(dp88
g2
(lp89
F8.645
aF8.633
aF8.657
asg4
(lp90
F0.462
aF0.445
aF0.47900000000000004
asg6
S'Ic-BL'
p91
sg8
S'SNsite'
p92
sg10
(lp93
F8.562
aF8.549
aF8.575999999999999
asg22
(lp94
F8.338
aF8.334
aF8.341999999999999
asg12
S'12as'
p95
sg25
(lp96
F8.552
aF8.532
aF8.57
asg14
(lp97
F8.438
aF8.433
aF8.443000000000001
asa(dp98
g2
(lp99
F8.728
aF8.600999999999999
aF8.823
asg4
(lp100
F0.0
aF0.0
aF0.0
asg6
S'Ic-BL'
p101
sg8
S'SNsite'
p102
sg10
(lp103
F8.631
aF8.498000000000001
aF8.709
asg22
(lp104
F8.366
aF8.331999999999999
aF8.395
asg12
S'10aavz'
p105
sg25
(lp106
F8.516
aF8.323
aF8.667
asg14
(lp107
F8.481
aF8.43
aF8.525
asa(dp108
g2
(lp109
F8.451
aF8.290000000000001
aF8.568000000000001
asg4
(lp110
F0.0
aF0.0
aF0.0
asg6
S'Ic-BL'
p111
sg8
S'SNsite'
p112
sg10
(lp113
F8.625
aF8.407
aF8.771
asg22
(lp114
F8.269
aF8.23
aF8.302
asg12
S'10bzf'
p115
sg25
(lp116
F8.152
aF7.882
aF8.34
asg14
(lp117
F8.333
aF8.269
aF8.385
asa(dp118
g2
(lp119
F8.161
aF7.976
aF8.279
asg4
(lp120
F0.329
aF0.271
aF0.39
asg6
S'uncertain'
p121
sg8
S'SNsite'
p122
sg10
(lp123
F8.28
aF8.145
aF8.408999999999999
asg22
(lp124
F8.175
aF8.167000000000002
aF8.184000000000001
asg12
S'10gvb'
p125
sg25
(lp126
F7.945
aF7.714
aF8.136000000000001
asg14
(lp127
F8.102
aF8.040000000000001
aF8.147
asa(dp128
g2
(lp129
F9.042
aF9.016
aF9.07
asg4
(lp130
F0.457
aF0.392
aF0.525
asg6
S'other'
p131
sg8
S'nuc'
p132
sg10
(lp133
F9.079
aF8.989
aF9.192
asg22
(lp134
F8.637
aF8.597000000000001
aF8.686
asg12
S'09q'
p135
sg25
(lp136
F9.319
aF9.286000000000001
aF9.353000000000002
asg14
(lp137
F8.891
aF8.834
aF8.973
asa(dp138
g2
(lp139
F8.893
aF8.884
aF8.902000000000001
asg4
(lp140
F0.0
aF0.0
aF0.0
asg6
S'Ic'
p141
sg8
S'SNsite'
p142
sg10
(lp143
F8.787
aF8.767000000000001
aF8.808000000000002
asg22
(lp144
F8.448
aF8.440000000000001
aF8.456
asg12
S'10hfe'
p145
sg25
(lp146
F8.782
aF8.771
aF8.793
asg14
(lp147
F8.602
aF8.597
aF8.607000000000001
asa(dp148
g2
(lp149
F8.708
aF8.667
aF8.745000000000001
asg4
(lp150
F0.282
aF0.19899999999999995
aF0.374
asg6
S'Ic-BL'
p151
sg8
S'SNsite'
p152
sg10
(lp153
F8.572
aF8.488
aF8.645999999999999
asg22
(lp154
F8.312
aF8.272
aF8.375
asg12
S'10ciw'
p155
sg25
(lp156
F8.545
aF8.475
aF8.618
asg14
(lp157
F8.4
aF8.34
aF8.496
asa(dp158
g2
(lp159
F8.58
aF8.553
aF8.607
asg4
(lp160
F0.504
aF0.443
aF0.569
asg6
S'uncertain'
p161
sg8
S'nuc'
p162
sg14
(lp163
F8.302
aF8.289
aF8.315
asg22
(lp164
F8.246
aF8.236
aF8.255
asg12
S'10bip'
p165
sg25
(lp166
F8.378
aF8.328
aF8.42
asa(dp167
g2
(lp168
F7.856
aF7.772
aF7.925
asg4
(lp169
F0.09
aF0.077
aF0.103
asg6
S'Ic'
p170
sg8
S'SNsite'
p171
sg10
(lp172
F7.977
aF7.965000000000001
aF7.988
asg12
S'11rka'
p173
sg25
(lp174
F7.726
aF7.551
aF7.843
asg14
(lp175
F8.018
aF7.992000000000001
aF8.040000000000001
asa(dp176
g2
(lp177
F8.814
aF8.788
aF8.838
asg4
(lp178
F0.173
aF0.08999999999999998
aF0.263
asg6
S'Ic'
p179
sg8
S'SNsite'
p180
sg10
(lp181
F8.751
aF8.683
aF8.812999999999999
asg22
(lp182
F8.431
aF8.417
aF8.447
asg12
S'10bhu'
p183
sg25
(lp184
F8.657
aF8.62
aF8.693
asg14
(lp185
F8.579
aF8.559000000000001
aF8.600000000000001
asa(dp186
g2
(lp187
F8.511
aF8.495
aF8.527
asg4
(lp188
F0.0
aF0.0
aF0.0
asg6
S'Ic'
p189
sg8
S'SNsite'
p190
sg10
(lp191
F8.402
aF8.261999999999999
aF8.434999999999999
asg22
(lp192
F8.236
aF8.229000000000001
aF8.243
asg12
S'11bov'
p193
sg25
(lp194
F8.204
aF8.173
aF8.233
asg14
(lp195
F8.286
aF8.278
aF8.293999999999999
asa(dp196
g2
(lp197
F8.873
aF8.818
aF8.928999999999998
asg4
(lp198
F0.0
aF0.0
aF0.058
asg6
S'Ic'
p199
sg8
S'SNsite'
p200
sg10
(lp201
F8.853
aF8.808
aF8.889
asg22
(lp202
F8.454
aF8.433
aF8.476
asg12
S'10lbo'
p203
sg25
(lp204
F8.808
aF8.733
aF8.879999999999999
asg14
(lp205
F8.613
aF8.581999999999999
aF8.644
asa(dp206
g2
(lp207
F8.737
aF8.531
aF8.876
asg4
(lp208
F0.0
aF0.0
aF0.298
asg6
S'Ic-BL'
p209
sg8
S'SNsite'
p210
sg10
(lp211
F8.524
aF8.417
aF8.642
asg22
(lp212
F8.413
aF8.347
aF8.469
asg12
S'11cmh'
p213
sg25
(lp214
F8.654
aF8.376
aF8.832
asg14
(lp215
F8.55
aF8.447000000000001
aF8.634
asa(dp216
g2
(lp217
F8.518
aF8.510000000000002
aF8.526
asg4
(lp218
F0.0
aF0.0
aF0.0
asg6
S'Ic-BL'
p219
sg8
S'SNsite'
p220
sg10
(lp221
F8.425
aF8.351
aF8.468
asg22
(lp222
F8.235
aF8.229999999999999
aF8.24
asg12
S'11qcj'
p223
sg25
(lp224
F8.327
aF8.313
aF8.341
asg14
(lp225
F8.284
aF8.280000000000001
aF8.287
asa(dp226
g2
(lp227
F9.013
aF8.975
aF9.055
asg4
(lp228
F0.03
aF0.0
aF0.14500000000000002
asg6
S'Ic'
p229
sg8
S'SNsite'
p230
sg10
(lp231
F8.922
aF8.835
aF9.033000000000001
asg22
(lp232
F8.498
aF8.478
aF8.521999999999998
asg12
S'11ixk'
p233
sg25
(lp234
F8.926
aF8.883000000000001
aF8.967
asg14
(lp235
F8.679
aF8.652000000000001
aF8.71
asa(dp236
g2
(lp237
F8.522
aF8.518
aF8.526
asg4
(lp238
F0.111
aF0.104
aF0.11800000000000001
asg6
S'Ic-BL'
p239
sg8
S'nuc'
p240
sg10
(lp241
F8.486
aF8.478000000000002
aF8.495000000000001
asg22
(lp242
F8.269
aF8.266
aF8.272
asg12
S'09sk'
p243
sg25
(lp244
F8.368
aF8.361
aF8.374
asg14
(lp245
F8.335
aF8.333
aF8.337000000000002
asa(dp246
g2
(lp247
F9.36
aF9.084999999999999
aF9.386999999999999
asg4
(lp248
F0.37
aF0.277
aF0.472
asg6
S'other'
p249
sg8
S'SNsite'
p250
sg10
(lp251
F8.633
aF8.501
aF8.914
asg22
(lp252
F8.631
aF8.588000000000001
aF8.687
asg12
S'10acbu'
p253
sg25
(lp254
F9.219
aF9.18
aF9.272
asg14
(lp255
F8.882
aF8.823
aF8.978
asa(dp256
g2
(lp257
F8.984
aF8.973
aF8.995
asg4
(lp258
F0.124
aF0.093
aF0.157
asg6
S'Ic'
p259
sg8
S'SNsite'
p260
sg10
(lp261
F9.055
aF9.038
aF9.072
asg22
(lp262
F8.661
aF8.629999999999999
aF8.698
asg12
S'12cjy'
p263
sg25
(lp264
F9.145
aF9.121
aF9.174999999999999
asg14
(lp265
F8.919
aF8.884
aF8.969000000000001
asa(dp266
g2
(lp267
F8.916
aF8.833
aF9.0
asg4
(lp268
F0.104
aF0.0
aF0.31
asg6
S'Ic'
p269
sg8
S'SNsite'
p270
sg10
(lp271
F8.812
aF8.674999999999999
aF8.892999999999999
asg22
(lp272
F8.487
aF8.446
aF8.532
asg12
S'10fmx'
p273
sg25
(lp274
F8.938
aF8.824
aF9.040000000000001
asg14
(lp275
F8.662
aF8.602
aF8.727
asa(dp276
g2
(lp277
F8.903
aF8.901
aF8.906
asg4
(lp278
F0.604
aF0.592
aF0.616
asg6
S'Ic'
p279
sg8
S'SNsite'
p280
sg10
(lp281
F8.861
aF8.852
aF8.870000000000001
asg22
(lp282
F8.505
aF8.495000000000001
aF8.516
asg12
S'12fgw'
p283
sg25
(lp284
F9.031
aF9.028
aF9.034
asg14
(lp285
F8.688
aF8.684000000000001
aF8.692
asa(dp286
g2
(lp287
F8.612
aF8.554
aF8.665000000000001
asg4
(lp288
F0.316
aF0.19
aF0.46099999999999997
asg6
S'other'
p289
sg8
S'SNsite'
p290
sg10
(lp291
F8.552
aF8.45
aF8.684
asg22
(lp292
F8.306
aF8.283
aF8.325999999999999
asg12
S'09dzt'
p293
sg25
(lp294
F8.556
aF8.456
aF8.645999999999999
asg14
(lp295
F8.391
aF8.358
aF8.422
asa(dp296
g2
(lp297
F8.782
aF8.778
aF8.786
asg4
(lp298
F0.3
aF0.27999999999999997
aF0.321
asg6
S'Ic'
p299
sg8
S'SNsite'
p300
sg10
(lp301
F8.669
aF8.654
aF8.684000000000001
asg22
(lp302
F8.377
aF8.373000000000001
aF8.381
asg12
S'12dcp'
p303
sg25
(lp304
F8.807
aF8.801
aF8.813
asg14
(lp305
F8.497
aF8.493
aF8.501
asa(dp306
g2
(lp307
F8.472
aF8.421999999999999
aF8.514
asg4
(lp308
F0.292
aF0.21399999999999997
aF0.375
asg6
S'uncertain'
p309
sg8
S'SNsite'
p310
sg10
(lp311
F8.347
aF8.216
aF8.463
asg22
(lp312
F8.287
aF8.271
aF8.304
asg12
S'09ps'
p313
sg25
(lp314
F8.309
aF8.221
aF8.382
asg14
(lp315
F8.362
aF8.337
aF8.388
asa(dp316
g2
(lp317
F8.966
aF8.95
aF8.981
asg4
(lp318
F0.717
aF0.631
aF0.8049999999999999
asg6
S'Ic'
p319
sg8
S'SNsite'
p320
sg10
(lp321
F8.835
aF8.74
aF8.937000000000001
asg22
(lp322
F8.574
aF8.544
aF8.611
asg12
S'11jgj'
p323
sg25
(lp324
F9.094
aF9.064
aF9.129999999999999
asg14
(lp325
F8.792
aF8.753
aF8.843
asa(dp326
g2
(lp327
F8.089
aF7.678000000000001
aF8.690000000000001
asg4
(lp328
F0.0
aF0.0
aF0.0
asg6
S'Ic-BL'
p329
sg8
S'SNsite'
p330
sg10
(lp331
F8.033
aF7.991999999999999
aF8.078999999999999
asg22
(lp332
F8.183
aF8.17
aF8.201
asg12
S'10qts'
p333
sg25
(lp334
F8.108
aF7.7540000000000004
aF8.402000000000001
asg14
(lp335
F8.081
aF7.938
aF8.161999999999999
asa(dp336
g2
(lp337
F8.099
aF7.668
aF8.69
asg4
(lp338
F0.0
aF0.0
aF0.045
asg6
S'Ic'
p339
sg8
S'SNsite'
p340
sg10
(lp341
F8.108
aF8.01
aF8.233
asg22
(lp342
F8.188
aF8.174000000000001
aF8.207
asg12
S'10hie'
p343
sg25
(lp344
F7.762
aF7.502
aF7.989
asg14
(lp345
F8.094
aF7.946999999999999
aF8.181999999999999
asa(dp346
g2
(lp347
F8.501
aF8.485
aF8.514999999999999
asg4
(lp348
F0.485
aF0.45999999999999996
aF0.513
asg6
S'Ic'
p349
sg8
S'SNsite'
p350
sg10
(lp351
F8.384
aF8.321
aF8.441
asg22
(lp352
F8.233
aF8.226
aF8.24
asg12
S'12dtf'
p353
sg25
(lp354
F8.481
aF8.455
aF8.504999999999999
asg14
(lp355
F8.281
aF8.273000000000001
aF8.288
asa(dp356
g2
(lp357
F8.455
aF8.312
aF8.557
asg4
(lp358
F0.657
aF0.42500000000000004
aF0.924
asg6
S'Ic-BL'
p359
sg8
S'SNsite'
p360
sg10
(lp361
F8.475
aF8.405999999999999
aF8.548
asg22
(lp362
F8.228
aF8.193999999999999
aF8.26
asg12
S'11img'
p363
sg25
(lp364
F8.363
aF8.136999999999999
aF8.539
asg14
(lp365
F8.265
aF8.199
aF8.316
asa(dp366
g2
(lp367
F8.87
aF8.83
aF8.908999999999999
asg4
(lp368
F0.017
aF0.0
aF0.139
asg6
S'Ic'
p369
sg8
S'nuc'
p370
sg10
(lp371
F8.759
aF8.628
aF8.907
asg22
(lp372
F8.464
aF8.441
aF8.488
asg12
S'12hvv'
p373
sg25
(lp374
F8.735
aF8.681999999999999
aF8.789
asg14
(lp375
F8.627
aF8.595
aF8.662
asa(dp376
g2
(lp377
F8.928
aF8.909
aF8.946000000000002
asg4
(lp378
F0.45
aF0.379
aF0.53
asg6
S'other'
p379
sg8
S'SNsite'
p380
sg10
(lp381
F8.765
aF8.712
aF8.81
asg22
(lp382
F8.448
aF8.431000000000001
aF8.466000000000001
asg12
S'12elh'
p383
sg25
(lp384
F8.897
aF8.868
aF8.926
asg14
(lp385
F8.602
aF8.58
aF8.628
asa(dp386
g2
(lp387
F8.909
aF8.892000000000001
aF8.927000000000001
asg4
(lp388
F0.631
aF0.544
aF0.728
asg6
S'Ic'
p389
sg8
S'HII1'
p390
sg10
(lp391
F9.181
aF9.12
aF9.258999999999999
asg12
S'10yow'
p392
sa(dp393
g2
(lp394
F9.066
aF9.051
aF9.083
asg4
(lp395
F0.235
aF0.211
aF0.257
asg6
S'Ic'
p396
sg8
S'HII2'
p397
sg10
(lp398
F9.087
aF9.074
aF9.1
asg22
(lp399
F8.617
aF8.598
aF8.637
asg12
S'11klg'
p400
sg25
(lp401
F9.126
aF9.110999999999999
aF9.141
asg14
(lp402
F8.856
aF8.841
aF8.87
asa(dp403
g2
(lp404
F8.677
aF8.619
aF8.725
asg4
(lp405
F0.07
aF0.006000000000000005
aF0.137
asg6
S'Ic-BL'
p406
sg8
S'SNsite'
p407
sg10
(lp408
F8.811
aF8.756
aF8.862
asg22
(lp409
F8.311
aF8.295
aF8.325
asg12
S'10vgv'
p410
sg25
(lp411
F8.852
aF8.745000000000001
aF8.956
asg14
(lp412
F8.399
aF8.375
aF8.42
asa(dp413
g2
(lp414
F8.779
aF8.748
aF8.806
asg4
(lp415
F1.469
aF1.3230000000000002
aF1.637
asg6
S'Ic'
p416
sg8
S'SNsite'
p417
sg10
(lp418
F8.818
aF8.649
aF9.013
asg12
S'10qqd'
p419
sa(dp420
g2
(lp421
F8.451
aF8.438
aF8.464
asg4
(lp422
F0.091
aF0.067
aF0.11599999999999999
asg6
S'uncertain'
p423
sg8
S'SNsite'
p424
sg10
(lp425
F8.457
aF8.450000000000001
aF8.461
asg22
(lp426
F8.186
aF8.178
aF8.193999999999999
asg12
S'12hni'
p427
sg25
(lp428
F8.373
aF8.349
aF8.398
asg14
(lp429
F8.211
aF8.205
aF8.217
asa(dp430
g2
(lp431
F8.312
aF8.068
aF8.45
asg4
(lp432
F0.007
aF0.0
aF0.1
asg6
S'Ic-BL'
p433
sg8
S'SNsite'
p434
sg10
(lp435
F8.168
aF8.078
aF8.412999999999998
asg22
(lp436
F8.235
aF8.197
aF8.266
asg12
S'10tqv'
p437
sg25
(lp438
F8.118
aF7.824000000000001
aF8.344000000000001
asg14
(lp439
F8.268
aF8.179
aF8.324
asa(dp440
g2
(lp441
F8.95
aF8.931
aF8.969
asg4
(lp442
F0.411
aF0.369
aF0.45899999999999996
asg6
S'Ic'
p443
sg8
S'SNsite'
p444
sg10
(lp445
F8.986
aF8.909
aF9.09
asg22
(lp446
F8.614
aF8.587000000000002
aF8.645000000000001
asg12
S'10zcn'
p447
sg25
(lp448
F9.115
aF9.087
aF9.146
asg14
(lp449
F8.851
aF8.821000000000002
aF8.889000000000001
asa(dp450
g2
(lp451
F8.806
aF8.799
aF8.812999999999999
asg4
(lp452
F0.14
aF0.13
aF0.15000000000000002
asg6
S'Ic'
p453
sg8
S'HII2'
p454
sg10
(lp455
F8.827
aF8.82
aF8.834999999999999
asg22
(lp456
F8.426
aF8.42
aF8.432
asg12
S'10tqi'
p457
sg25
(lp458
F8.758
aF8.748
aF8.767999999999999
asg14
(lp459
F8.569
aF8.566
aF8.572000000000001
asa(dp460
g2
(lp461
F9.022
aF8.995000000000001
aF9.051
asg4
(lp462
F0.681
aF0.6100000000000001
aF0.755
asg6
S'Ic'
p463
sg8
S'HII'
p464
sg10
(lp465
F8.828
aF8.665999999999999
aF9.029
asg22
(lp466
F8.526
aF8.506
aF8.549
asg12
S'10osn'
p467
sg25
(lp468
F9.106
aF9.079
aF9.135
asg14
(lp469
F8.719
aF8.693999999999999
aF8.747
asa(dp470
g2
(lp471
F9.066
aF9.05
aF9.083
asg4
(lp472
F0.693
aF0.6529999999999999
aF0.735
asg6
S'Ic'
p473
sg8
S'SNsite'
p474
sg10
(lp475
F9.046
aF9.007
aF9.093
asg22
(lp476
F8.594
aF8.575
aF8.615
asg12
S'11hyg'
p477
sg25
(lp478
F9.185
aF9.167
aF9.202
asg14
(lp479
F8.82
aF8.802
aF8.84
asa(dp480
g2
(lp481
F9.378
aF9.366
aF9.388
asg4
(lp482
F0.222
aF0.195
aF0.249
asg6
S'Ic'
p483
sg8
S'SNsite'
p484
sg10
(lp485
F9.136
aF9.103
aF9.174999999999999
asg22
(lp486
F8.63
aF8.609
aF8.654
asg12
S'10ysd'
p487
sg25
(lp488
F9.209
aF9.196
aF9.222999999999999
asg14
(lp489
F8.875
aF8.854
aF8.899
asa(dp490
g2
(lp491
F8.323
aF8.295
aF8.349
asg4
(lp492
F0.333
aF0.319
aF0.34800000000000003
asg6
S'Ic-BL'
p493
sg8
S'SNsite'
p494
sg10
(lp495
F8.28
aF8.26
aF8.299
asg22
(lp496
F8.219
aF8.209
aF8.226999999999999
asg12
S'11lbm'
p497
sg25
(lp498
F8.035
aF7.985
aF8.084
asg14
(lp499
F8.26
aF8.249
aF8.27
asa(dp500
g2
(lp501
F8.444
aF8.405000000000001
aF8.478000000000002
asg4
(lp502
F0.0
aF0.0
aF0.0
asg6
S'Ic-BL'
p503
sg8
S'SNsite'
p504
sg10
(lp505
F8.229
aF8.187999999999999
aF8.408
asg22
(lp506
F8.228
aF8.215
aF8.238999999999999
asg12
S'11gcj'
p507
sg25
(lp508
F8.257
aF8.18
aF8.328999999999999
asg14
(lp509
F8.273
aF8.256
aF8.289
asa(dp510
g2
(lp511
F7.941
aF7.889
aF7.987
asg4
(lp512
F0.081
aF0.059000000000000004
aF0.10300000000000001
asg6
S'uncertain'
p513
sg8
S'SNsite'
p514
sg10
(lp515
F7.943
aF7.89
aF7.989
asg12
S'12gzk'
p516
sg25
(lp517
F8.048
aF7.957
aF8.12
asg14
(lp518
F8.071
aF8.054
aF8.086
asa.