(lp0
(dp1
S'modelz'
p2
F0.035
sS'LgZ'
p3
(lp4
F-0.257
aF0.002
aF-0.276
aF-0.68
aF0.097
aF-0.935
aF0.257
asS'LgSFR_spec'
p5
(lp6
F-10.865
aF-10.57
aF-11.122
aF-12.109
aF-10.286
aF-13.539
aF-9.833
asS'redshift'
p7
F0.034096
sS'chi2_best'
p8
S'   1.1348617878'
p9
sS'NUV_ext'
p10
(lp11
F0.924
aF0.97
aF1.046
aF0.354
aF1.709
aF0.073
aF2.781
asS'g_ext'
p12
(lp13
F0.391
aF0.32
aF0.485
aF0.141
aF0.812
aF0.022
aF1.449
asS'LgSFR'
p14
(lp15
F-0.335
aF0.076
aF-0.634
aF-1.695
aF0.28
aF-3.384
aF0.766
asS'Lgtau_V0'
p16
(lp17
F1.133
aF0.863
aF1.25
aF0.438
aF2.004
aF0.075
aF3.21
asS'Lgb'
p18
(lp19
F-1.275
aF-1.08
aF-1.5
aF-2.367
aF-0.766
aF-3.614
aF-0.399
asS'sloan_objid'
p20
S'                  1'
p21
sS'FUV_ext'
p22
(lp23
F1.414
aF1.54
aF1.538
aF0.601
aF2.418
aF0.127
aF3.775
asS'r_ext'
p24
(lp25
F0.317
aF0.24
aF0.396
aF0.113
aF0.662
aF0.016
aF1.186
asS'i_ext'
p26
(lp27
F0.274
aF0.21
aF0.343
aF0.097
aF0.575
aF0.013
aF1.031
asS'u_ext'
p28
(lp29
F0.518
aF0.32
aF0.634
aF0.191
aF1.063
aF0.033
aF1.863
asS'LgMs'
p30
(lp31
F10.558
aF10.613
aF10.563
aF10.456
aF10.655
aF10.364
aF10.743
asS'modelmag'
p32
(lp33
F-999.0
aF15.043437
aF14.450348
aF14.037049
aF13.872028
asS'modelerr'
p34
(lp35
F-999.0
aF0.01
aF0.092
aF0.01
aF0.01
asS'z_ext'
p36
(lp37
F0.24
aF0.18
aF0.302
aF0.085
aF0.505
aF0.01
aF0.909
asa(dp38
g2
F0.03
sg3
(lp39
F-0.132
aF0.21
aF-0.183
aF-0.559
aF0.157
aF-0.92
aF0.266
asg5
(lp40
F-9.275
aF-9.19
aF-9.593
aF-10.455
aF-8.881
aF-12.596
aF-8.402
asg7
F0.030998
sg8
S'   0.8282319884'
p41
sg10
(lp42
F0.922
aF0.9
aF1.032
aF0.34
aF1.697
aF0.065
aF2.593
asg12
(lp43
F0.408
aF0.22
aF0.494
aF0.141
aF0.848
aF0.019
aF1.398
asg14
(lp44
F-0.827
aF-0.787
aF-1.146
aF-1.959
aF-0.455
aF-4.158
aF-0.06
asg16
(lp45
F1.029
aF0.587
aF1.151
aF0.358
aF1.874
aF0.059
aF3.067
asg18
(lp46
F-0.194
aF-0.01
aF-0.411
aF-0.946
aF-0.025
aF-2.785
aF0.893
asg20
S'                  3'
p47
sg22
(lp48
F1.277
aF1.03
aF1.398
aF0.492
aF2.263
aF0.097
aF3.396
asg24
(lp49
F0.321
aF0.14
aF0.394
aF0.108
aF0.68
aF0.013
aF1.133
asg26
(lp50
F0.275
aF0.12
aF0.339
aF0.09
aF0.587
aF0.009
aF0.978
asg28
(lp51
F0.58
aF0.38
aF0.678
aF0.206
aF1.144
aF0.034
aF1.827
asg30
(lp52
F8.444
aF8.44
aF8.464
aF8.341
aF8.575
aF8.231
aF8.751
asg32
(lp53
F-999.0
aF18.301691
aF18.002474
aF17.958197
aF17.809141
asg34
(lp54
F-999.0
aF0.063
aF0.05
aF0.051
aF0.085
asg36
(lp55
F0.238
aF0.11
aF0.295
aF0.077
aF0.512
aF0.007
aF0.854
asa(dp56
S'modelz'
p57
F0.07
sS'LgZ'
p58
(lp59
F-0.234
aF-0.206
aF-0.262
aF-0.636
aF0.085
aF-0.956
aF0.251
asS'LgSFR_spec'
p60
(lp61
F-9.184
aF-9.07
aF-9.326
aF-9.685
aF-8.822
aF-11.686
aF-8.432
asS'redshift'
p62
F0.070999
sS'chi2_best'
p63
S'   0.9572182657'
p64
sS'NUV_ext'
p65
(lp66
F1.223
aF1.07
aF1.283
aF0.604
aF1.949
aF0.14
aF2.757
asS'g_ext'
p67
(lp68
F0.541
aF0.42
aF0.61
aF0.247
aF0.978
aF0.054
aF1.477
asS'LgSFR'
p69
(lp70
F-0.226
aF-0.204
aF-0.384
aF-0.723
aF0.098
aF-2.739
aF0.452
asS'Lgtau_V0'
p71
(lp72
F1.276
aF1.35
aF1.38
aF0.661
aF2.059
aF0.152
aF3.261
asS'Lgb'
p73
(lp74
F-0.168
aF-0.01
aF-0.258
aF-0.52
aF-0.029
aF-1.924
aF0.836
asS'sloan_objid'
p75
S'                  2'
p76
sS'FUV_ext'
p77
(lp78
F1.66
aF1.95
aF1.732
aF0.854
aF2.596
aF0.209
aF3.592
asS'r_ext'
p79
(lp80
F0.425
aF0.23
aF0.486
aF0.191
aF0.784
aF0.041
aF1.199
asS'i_ext'
p81
(lp82
F0.364
aF0.34
aF0.418
aF0.162
aF0.676
aF0.034
aF1.039
asS'u_ext'
p83
(lp84
F0.78
aF0.87
aF0.848
aF0.365
aF1.331
aF0.082
aF1.947
asS'LgMs'
p85
(lp86
F8.928
aF8.933
aF8.948
aF8.854
aF9.026
aF8.779
aF9.188
asS'modelmag'
p87
(lp88
F-999.0
aF18.850815
aF18.554391
aF18.395662
aF18.376503
aF20.415211
aF20.933974
asS'modelerr'
p89
(lp90
F-999.0
aF0.1
aF0.084
aF0.052
aF0.04
aF0.2651392
aF0.364607
asS'z_ext'
p91
(lp92
F0.317
aF0.3
aF0.365
aF0.14
aF0.591
aF0.027
aF0.909
asa(dp93
g57
F0.0325
sg58
(lp94
F-0.074
aF0.08
aF-0.129
aF-0.431
aF0.169
aF-0.868
aF0.255
asg60
(lp95
F-10.076
aF-10.05
aF-10.098
aF-10.211
aF-9.943
aF-10.55
aF-9.817
asg62
F0.031398
sg63
S'   0.2795641602'
p96
sg65
(lp97
F1.534
aF1.35
aF1.529
aF1.232
aF1.848
aF0.801
aF2.147
asg67
(lp98
F0.621
aF0.81
aF0.639
aF0.471
aF0.815
aF0.287
aF0.985
asg69
(lp99
F1.092
aF1.102
aF1.071
aF0.949
aF1.223
aF0.668
aF1.346
asg71
(lp100
F1.512
aF1.25
aF1.681
aF1.055
aF2.37
aF0.726
aF3.519
asg73
(lp101
F-0.669
aF-0.8
aF-0.675
aF-0.809
aF-0.503
aF-0.993
aF-0.367
asg75
S'                  4'
p102
sg77
(lp103
F2.104
aF2.03
aF2.086
aF1.712
aF2.494
aF1.146
aF2.868
asg79
(lp104
F0.497
aF0.65
aF0.511
aF0.372
aF0.654
aF0.225
aF0.804
asg81
(lp105
F0.429
aF0.56
aF0.442
aF0.317
aF0.565
aF0.193
aF0.694
asg83
(lp106
F0.89
aF0.91
aF0.893
aF0.663
aF1.122
aF0.424
aF1.343
asg85
(lp107
F11.151
aF11.147
aF11.165
aF11.072
aF11.255
aF10.996
aF11.349
asg87
(lp108
F-999.0
aF13.120817
aF12.527546
aF12.242409
aF12.010446
aF15.647178
aF16.222815
asg89
(lp109
F-999.0
aF0.012
aF0.015
aF0.003
aF0.004
aF0.0190908
aF0.0367185
asg91
(lp110
F0.375
aF0.49
aF0.387
aF0.277
aF0.496
aF0.166
aF0.612
asa(dp111
S'modelz'
p112
F0.1054
sS'LgZ'
p113
(lp114
F-0.095
aF0.249
aF-0.16
aF-0.549
aF0.181
aF-0.918
aF0.271
asS'LgSFR_spec'
p115
(lp116
F-9.547
aF-9.5
aF-9.702
aF-10.023
aF-9.209
aF-12.091
aF-8.824
asS'redshift'
p117
F0.105399
sS'chi2_best'
p118
S'   1.3890250803'
p119
sS'NUV_ext'
p120
(lp121
F1.166
aF0.97
aF1.285
aF0.493
aF2.033
aF0.089
aF3.225
asS'g_ext'
p122
(lp123
F0.493
aF0.34
aF0.597
aF0.185
aF0.994
aF0.028
aF1.734
asS'LgSFR'
p124
(lp125
F-0.454
aF-0.461
aF-0.614
aF-0.924
aF-0.132
aF-3.064
aF0.304
asS'Lgtau_V0'
p126
(lp127
F1.134
aF0.75
aF1.265
aF0.439
aF2.019
aF0.072
aF3.324
asS'Lgb'
p128
(lp129
F-0.305
aF-0.25
aF-0.432
aF-0.678
aF-0.094
aF-2.338
aF0.322
asS'sloan_objid'
p130
S'1237664674327232757'
p131
sS'FUV_ext'
p132
(lp133
F1.622
aF1.6
aF1.762
aF0.73
aF2.733
aF0.139
aF4.276
asS'r_ext'
p134
(lp135
F0.382
aF0.15
aF0.472
aF0.139
aF0.792
aF0.019
aF1.409
asS'i_ext'
p136
(lp137
F0.326
aF0.2
aF0.405
aF0.116
aF0.682
aF0.013
aF1.223
asS'u_ext'
p138
(lp139
F0.723
aF0.65
aF0.837
aF0.285
aF1.365
aF0.047
aF2.275
asS'LgMs'
p140
(lp141
F9.082
aF9.053
aF9.1
aF8.97
aF9.216
aF8.875
aF9.383
asS'modelmag'
p142
(lp143
F21.05399
aF20.022
aF19.57219
aF19.355582
aF19.575111
asS'modelerr'
p144
(lp145
F0.271179
aF0.0436075
aF0.0468376
aF0.0702881
aF0.3330425
asS'z_ext'
p146
(lp147
F0.283
aF0.13
aF0.354
aF0.1
aF0.597
aF0.01
aF1.073
asa(dp148
g112
F0.03
sg113
(lp149
F-0.015
aF0.028
aF-0.067
aF-0.336
aF0.185
aF-0.747
aF0.271
asg115
(lp150
F-10.025
aF-10.06
aF-10.009
aF-10.299
aF-9.727
aF-10.555
aF-9.401
asg117
F0.030931
sg118
S'   0.0519338573'
p151
sg120
(lp152
F1.138
aF1.03
aF1.225
aF0.48
aF1.916
aF0.075
aF2.859
asg122
(lp153
F0.429
aF0.32
aF0.518
aF0.152
aF0.872
aF0.015
aF1.472
asg124
(lp154
F0.558
aF0.554
aF0.576
aF0.288
aF0.86
aF0.046
aF1.181
asg126
(lp155
F1.044
aF0.4
aF1.164
aF0.389
aF1.907
aF0.054
aF2.98
asg128
(lp156
F-0.58
aF-0.56
aF-0.571
aF-0.813
aF-0.332
aF-1.044
aF-0.086
asg130
S'1237662504295530810'
p157
sg132
(lp158
F1.567
aF1.44
aF1.668
aF0.698
aF2.572
aF0.117
aF3.809
asg134
(lp159
F0.335
aF0.22
aF0.41
aF0.114
aF0.697
aF0.008
aF1.19
asg136
(lp160
F0.286
aF0.1
aF0.353
aF0.096
aF0.602
aF0.006
aF1.029
asg138
(lp161
F0.632
aF0.54
aF0.734
aF0.24
aF1.204
aF0.029
aF1.93
asg140
(lp162
F10.57
aF10.56
aF10.58
aF10.49
aF10.662
aF10.417
aF10.75
asg142
(lp163
F15.707613
aF14.457762
aF13.911589
aF13.622214
aF13.411428
asg144
(lp164
F0.0349339
aF0.0021889
aF0.0019143
aF0.0019013
aF0.0062699
asg146
(lp165
F0.25
aF0.13
aF0.309
aF0.083
aF0.527
aF0.005
aF0.907
asa(dp166
g112
F0.1072
sg113
(lp167
F-0.054
aF0.028
aF-0.118
aF-0.453
aF0.173
aF-0.885
aF0.269
asg115
(lp168
F-9.252
aF-9.29
aF-9.231
aF-9.501
aF-8.948
aF-9.759
aF-8.465
asg117
F0.107197
sg118
S'   5.6535612713'
p169
sg120
(lp170
F1.242
aF1.08
aF1.379
aF0.571
aF2.177
aF0.115
aF3.437
asg122
(lp171
F0.536
aF0.36
aF0.652
aF0.21
aF1.095
aF0.034
aF1.906
asg124
(lp172
F-0.195
aF-0.297
aF-0.159
aF-0.43
aF0.138
aF-0.651
aF0.617
asg126
(lp173
F1.106
aF1.288
aF1.249
aF0.445
aF2.002
aF0.087
aF3.31
asg128
(lp174
F-0.147
aF-0.06
aF-0.114
aF-0.312
aF-0.022
aF-0.509
aF0.795
asg130
S'1237665570901000613'
p175
sg132
(lp176
F1.701
aF1.22
aF1.867
aF0.816
aF2.921
aF0.171
aF4.514
asg134
(lp177
F0.411
aF0.24
aF0.513
aF0.153
aF0.873
aF0.022
aF1.55
asg136
(lp178
F0.35
aF0.18
aF0.44
aF0.128
aF0.752
aF0.017
aF1.342
asg138
(lp179
F0.792
aF0.57
aF0.917
aF0.339
aF1.495
aF0.062
aF2.469
asg140
(lp180
F9.043
aF9.027
aF9.067
aF8.975
aF9.135
aF8.912
aF9.353
asg142
(lp181
F20.748711
aF19.773019
aF19.482117
aF19.193766
aF19.202828
asg144
(lp182
F0.112124
aF0.0186151
aF0.019599
aF0.0210203
aF0.0850905
asg146
(lp183
F0.304
aF0.16
aF0.384
aF0.108
aF0.658
aF0.013
aF1.173
asa(dp184
g112
F0.04
sg113
(lp185
F0.17
aF0.275
aF0.104
aF-0.078
aF0.262
aF-0.484
aF0.284
asg115
(lp186
F-10.617
aF-10.72
aF-10.628
aF-10.982
aF-10.221
aF-11.682
aF-9.711
asg117
F0.039897
sg118
S'   0.1320148469'
p187
sg120
(lp188
F2.302
aF1.99
aF2.423
aF1.434
aF3.395
aF0.608
aF4.87
asg122
(lp189
F1.041
aF0.88
aF1.133
aF0.553
aF1.697
aF0.173
aF2.592
asg124
(lp190
F0.323
aF0.286
aF0.305
aF-0.098
aF0.771
aF-0.883
aF1.31
asg126
(lp191
F1.9
aF1.812
aF2.06
aF1.122
aF3.051
aF0.454
aF4.326
asg128
(lp192
F-0.993
aF-1.15
aF-1.022
aF-1.328
aF-0.669
aF-1.997
aF-0.331
asg130
S'1237671767466639531'
p193
sg132
(lp194
F3.112
aF2.62
aF3.26
aF1.966
aF4.533
aF0.873
aF6.411
asg134
(lp195
F0.849
aF0.85
aF0.926
aF0.446
aF1.384
aF0.137
aF2.121
asg136
(lp196
F0.738
aF0.6
aF0.805
aF0.386
aF1.2
aF0.117
aF1.842
asg138
(lp197
F1.391
aF1.17
aF1.505
aF0.766
aF2.228
aF0.26
aF3.349
asg140
(lp198
F10.926
aF10.92
aF10.935
aF10.832
aF11.023
aF10.747
aF11.138
asg142
(lp199
F17.290628
aF15.623821
aF14.770229
aF14.326372
aF13.935834
asg144
(lp200
F0.0262508
aF0.0034261
aF0.0028154
aF0.002766
aF0.0046901
asg146
(lp201
F0.649
aF0.53
aF0.709
aF0.34
aF1.057
aF0.103
aF1.623
asa(dp202
g112
F0.0675
sg113
(lp203
F-0.207
aF-0.258
aF-0.232
aF-0.591
aF0.123
aF-0.936
aF0.258
asg115
(lp204
F-10.797
aF-10.45
aF-10.994
aF-12.091
aF-9.981
aF-13.444
aF-9.464
asg117
F0.066499
sg118
S'   6.8326038655'
p205
sg120
(lp206
F0.663
aF0.22
aF0.755
aF0.243
aF1.248
aF0.037
aF2.003
asg122
(lp207
F0.326
aF0.18
aF0.393
aF0.118
aF0.664
aF0.011
aF1.102
asg124
(lp208
F-1.588
aF-1.335
aF-1.829
aF-2.944
aF-0.794
aF-4.72
aF-0.23
asg126
(lp209
F0.99
aF0.938
aF1.121
aF0.378
aF1.802
aF0.049
aF2.918
asg128
(lp210
F-1.225
aF-0.93
aF-1.451
aF-2.367
aF-0.681
aF-3.556
aF-0.274
asg130
S'1237666228028375282'
p211
sg132
(lp212
F0.994
aF1.17
aF1.094
aF0.38
aF1.764
aF0.066
aF2.72
asg134
(lp213
F0.266
aF0.2
aF0.323
aF0.097
aF0.546
aF0.009
aF0.907
asg136
(lp214
F0.231
aF0.19
aF0.281
aF0.083
aF0.475
aF0.006
aF0.788
asg138
(lp215
F0.425
aF0.34
aF0.503
aF0.154
aF0.842
aF0.021
aF1.397
asg140
(lp216
F9.225
aF9.187
aF9.248
aF9.151
aF9.335
aF9.095
aF9.458
asg142
(lp217
F19.967652
aF18.447682
aF18.091743
aF17.873116
aF18.015004
asg144
(lp218
F0.1352774
aF0.0158591
aF0.0179019
aF0.0212548
aF0.0907938
asg146
(lp219
F0.202
aF0.11
aF0.247
aF0.072
aF0.418
aF0.005
aF0.693
asa(dp220
g112
F0.0625
sg113
(lp221
F0.047
aF0.249
aF-0.006
aF-0.227
aF0.214
aF-0.725
aF0.275
asg115
(lp222
F-9.248
aF-9.36
aF-9.217
aF-9.539
aF-8.852
aF-9.897
aF-8.36
asg117
F0.061899
sg118
S'  17.1131813405'
p223
sg120
(lp224
F1.626
aF1.31
aF1.762
aF0.847
aF2.728
aF0.237
aF3.827
asg122
(lp225
F0.744
aF0.48
aF0.863
aF0.321
aF1.427
aF0.078
aF2.158
asg124
(lp226
F-0.639
aF-0.799
aF-0.597
aF-0.921
aF-0.229
aF-1.221
aF0.234
asg126
(lp227
F1.462
aF1.35
aF1.607
aF0.726
aF2.483
aF0.189
aF3.906
asg128
(lp228
F-0.124
aF-0.01
aF-0.08
aF-0.303
aF0.012
aF-0.534
aF0.942
asg130
S'1237668728235557168'
p229
sg132
(lp230
F2.182
aF2.75
aF2.355
aF1.182
aF3.612
aF0.346
aF5.034
asg134
(lp231
F0.584
aF0.35
aF0.688
aF0.239
aF1.153
aF0.055
aF1.756
asg136
(lp232
F0.501
aF0.37
aF0.593
aF0.201
aF0.996
aF0.044
aF1.524
asg138
(lp233
F1.056
aF0.66
aF1.184
aF0.5
aF1.906
aF0.132
aF2.77
asg140
(lp234
F8.581
aF8.56
aF8.615
aF8.512
aF8.699
aF8.455
aF8.936
asg142
(lp235
F21.04727
aF19.942467
aF19.719862
aF19.297519
aF19.33237
asg144
(lp236
F0.0958189
aF0.0183913
aF0.0196085
aF0.0211255
aF0.065967
asg146
(lp237
F0.437
aF0.4
aF0.519
aF0.173
aF0.875
aF0.037
aF1.336
asa(dp238
g112
F0.158
sg113
(lp239
F-0.006
aF0.275
aF-0.083
aF-0.426
aF0.215
aF-0.872
aF0.277
asg115
(lp240
F-8.745
aF-8.69
aF-8.896
aF-9.308
aF-8.33
aF-11.293
aF-8.049
asg117
F0.157999
sg118
S'   5.2780229979'
p241
sg120
(lp242
F1.14
aF1.13
aF1.246
aF0.427
aF2.01
aF0.072
aF3.113
asg122
(lp243
F0.538
aF0.37
aF0.632
aF0.19
aF1.061
aF0.027
aF1.759
asg124
(lp244
F-0.628
aF-0.601
aF-0.747
aF-0.962
aF-0.335
aF-2.923
aF-0.04
asg126
(lp245
F1.008
aF1.025
aF1.138
aF0.36
aF1.845
aF0.054
aF3.052
asg128
(lp246
F-0.035
aF-0.01
aF0.073
aF-0.205
aF0.77
aF-1.584
aF1.412
asg130
S'1237655746704245441'
p247
sg132
(lp248
F1.572
aF1.6
aF1.685
aF0.611
aF2.675
aF0.109
aF4.077
asg134
(lp249
F0.413
aF0.26
aF0.494
aF0.141
aF0.837
aF0.018
aF1.41
asg136
(lp250
F0.351
aF0.23
aF0.422
aF0.118
aF0.716
aF0.013
aF1.213
asg138
(lp251
F0.765
aF0.58
aF0.864
aF0.278
aF1.421
aF0.043
aF2.262
asg140
(lp252
F8.126
aF8.12
aF8.149
aF7.876
aF8.407
aF7.653
aF8.72
asg142
(lp253
F23.858183
aF21.817487
aF22.274666
aF21.739934
aF21.85206
asg144
(lp254
F1.669991
aF0.1480869
aF0.2938961
aF0.2799713
aF0.9641347
asg146
(lp255
F0.303
aF0.2
aF0.366
aF0.1
aF0.621
aF0.01
aF1.053
asa(dp256
g112
F0.1161
sg113
(lp257
F0.082
aF0.288
aF0.025
aF-0.196
aF0.239
aF-0.66
aF0.281
asg115
(lp258
F-9.847
aF-9.99
aF-9.784
aF-10.072
aF-9.509
aF-10.245
aF-9.036
asg117
F0.116097
sg118
S'   2.8709020096'
p259
sg120
(lp260
F1.174
aF1.42
aF1.41
aF0.46
aF2.382
aF0.071
aF3.97
asg122
(lp261
F0.503
aF0.44
aF0.671
aF0.154
aF1.167
aF0.017
aF2.196
asg124
(lp262
F0.063
aF-0.029
aF0.152
aF-0.17
aF0.512
aF-0.33
aF0.976
asg126
(lp263
F0.865
aF0.538
aF1.093
aF0.308
aF1.926
aF0.037
aF3.227
asg128
(lp264
F-0.302
aF-0.4
aF-0.229
aF-0.525
aF0.116
aF-0.709
aF0.561
asg130
S'1237680090571473400'
p265
sg132
(lp266
F1.612
aF1.31
aF1.887
aF0.659
aF3.141
aF0.104
aF5.108
asg134
(lp267
F0.378
aF0.08
aF0.517
aF0.11
aF0.911
aF0.009
aF1.723
asg136
(lp268
F0.318
aF0.06
aF0.439
aF0.091
aF0.775
aF0.007
aF1.458
asg138
(lp269
F0.736
aF0.55
aF0.941
aF0.253
aF1.64
aF0.033
aF2.837
asg140
(lp270
F9.917
aF9.947
aF9.93
aF9.801
aF10.041
aF9.717
aF10.211
asg142
(lp271
F20.079097
aF19.142227
aF18.606294
aF18.221976
aF18.022857
asg144
(lp272
F0.0727279
aF0.0136525
aF0.0112641
aF0.0113523
aF0.0299296
asg146
(lp273
F0.277
aF0.12
aF0.381
aF0.077
aF0.674
aF0.004
aF1.265
asa(dp274
g112
F0.0275
sg113
(lp275
F-0.041
aF0.106
aF-0.086
aF-0.376
aF0.18
aF-0.747
aF0.272
asg115
(lp276
F-11.752
aF-11.41
aF-11.882
aF-12.912
aF-10.993
aF-13.775
aF-10.425
asg117
F0.026521
sg118
S'   2.5094760587'
p277
sg120
(lp278
F1.182
aF1.03
aF1.326
aF0.513
aF2.147
aF0.127
aF3.216
asg122
(lp279
F0.576
aF0.28
aF0.676
aF0.218
aF1.133
aF0.047
aF1.767
asg124
(lp280
F-0.879
aF-0.379
aF-1.068
aF-2.212
aF-0.069
aF-3.394
aF0.532
asg126
(lp281
F1.488
aF1.525
aF1.603
aF0.678
aF2.489
aF0.162
aF3.829
asg128
(lp282
F-2.051
aF-1.73
aF-2.162
aF-3.084
aF-1.363
aF-3.831
aF-0.878
asg130
S'1237669762795372813'
p283
sg132
(lp284
F1.79
aF1.33
aF1.96
aF0.822
aF3.098
aF0.209
aF4.507
asg134
(lp285
F0.478
aF0.38
aF0.561
aF0.18
aF0.94
aF0.037
aF1.461
asg136
(lp286
F0.416
aF0.12
aF0.489
aF0.155
aF0.819
aF0.031
aF1.275
asg138
(lp287
F0.726
aF0.6
aF0.847
aF0.283
aF1.411
aF0.064
aF2.198
asg140
(lp288
F10.934
aF10.96
aF10.939
aF10.837
aF11.021
aF10.762
aF11.109
asg142
(lp289
F16.123174
aF14.319133
aF13.563651
aF13.097964
aF12.884342
asg144
(lp290
F0.0423023
aF0.001472
aF0.0012849
aF0.0011604
aF0.0081501
asg146
(lp291
F0.366
aF0.27
aF0.431
aF0.135
aF0.723
aF0.026
aF1.125
asa(dp292
g112
F0.0803
sg113
(lp293
F-0.03
aF0.223
aF-0.088
aF-0.385
aF0.189
aF-0.829
aF0.272
asg115
(lp294
F-9.942
aF-9.92
aF-9.931
aF-10.204
aF-9.663
aF-10.451
aF-9.339
asg117
F0.080298
sg118
S'   0.8902008908'
p295
sg120
(lp296
F1.201
aF0.92
aF1.288
aF0.539
aF1.984
aF0.102
aF2.943
asg122
(lp297
F0.465
aF0.33
aF0.551
aF0.173
aF0.916
aF0.024
aF1.514
asg124
(lp298
F0.24
aF0.146
aF0.256
aF-0.022
aF0.525
aF-0.269
aF0.85
asg126
(lp299
F1.058
aF0.775
aF1.172
aF0.42
aF1.882
aF0.076
aF2.933
asg128
(lp300
F-0.507
aF-0.56
aF-0.505
aF-0.741
aF-0.277
aF-0.946
aF-0.059
asg130
S'1237652942091059457'
p301
sg132
(lp302
F1.652
aF1.34
aF1.755
aF0.781
aF2.669
aF0.155
aF3.907
asg134
(lp303
F0.359
aF0.17
aF0.433
aF0.129
aF0.726
aF0.017
aF1.225
asg136
(lp304
F0.306
aF0.14
aF0.372
aF0.109
aF0.626
aF0.013
aF1.063
asg138
(lp305
F0.696
aF0.47
aF0.792
aF0.281
aF1.277
aF0.045
aF2.003
asg140
(lp306
F10.17
aF10.147
aF10.181
aF10.089
aF10.263
aF10.01
aF10.356
asg142
(lp307
F18.6801
aF17.480935
aF16.923502
aF16.598439
aF16.421799
asg144
(lp308
F0.0611433
aF0.0094521
aF0.0077227
aF0.008409
aF0.0245047
asg146
(lp309
F0.267
aF0.17
aF0.325
aF0.093
aF0.547
aF0.01
aF0.933
asa(dp310
g112
F0.0796
sg113
(lp311
F-0.054
aF0.288
aF-0.128
aF-0.511
aF0.198
aF-0.899
aF0.276
asg115
(lp312
F-10.144
aF-10.06
aF-10.384
aF-11.209
aF-9.607
aF-13.095
aF-9.117
asg117
F0.079598
sg118
S'   0.6061133056'
p313
sg120
(lp314
F1.174
aF0.98
aF1.337
aF0.468
aF2.163
aF0.082
aF3.581
asg122
(lp315
F0.495
aF0.33
aF0.624
aF0.176
aF1.061
aF0.025
aF1.925
asg124
(lp316
F-1.664
aF-1.499
aF-1.938
aF-2.767
aF-1.182
aF-4.797
aF-0.676
asg126
(lp317
F1.237
aF0.95
aF1.373
aF0.479
aF2.208
aF0.078
aF3.593
asg128
(lp318
F-0.702
aF-0.47
aF-0.914
aF-1.572
aF-0.289
aF-3.224
aF-0.026
asg130
S'1237666183490175873'
p319
sg132
(lp320
F1.679
aF1.34
aF1.869
aF0.74
aF2.953
aF0.137
aF4.764
asg134
(lp321
F0.393
aF0.17
aF0.501
aF0.136
aF0.857
aF0.017
aF1.572
asg136
(lp322
F0.337
aF0.16
aF0.433
aF0.116
aF0.741
aF0.014
aF1.364
asg138
(lp323
F0.699
aF0.37
aF0.849
aF0.256
aF1.426
aF0.04
aF2.498
asg140
(lp324
F8.46
aF8.453
aF8.471
aF8.297
aF8.633
aF8.147
aF8.803
asg142
(lp325
F23.212411
aF21.686122
aF21.084529
aF20.926499
aF20.498196
asg144
(lp326
F0.7991439
aF0.102838
aF0.0836145
aF0.1209211
aF0.3047802
asg146
(lp327
F0.295
aF0.14
aF0.38
aF0.1
aF0.65
aF0.011
aF1.201
asa(dp328
S'modelz'
p329
F0.055
sS'LgZ'
p330
(lp331
F0.263
aF0.275
aF0.244
aF0.201
aF0.271
aF0.198
aF0.274
asS'LgSFR_spec'
p332
(lp333
F-8.059
aF-8.05
aF-8.087
aF-8.137
aF-8.053
aF-8.14
aF-8.05
asS'redshift'
p334
F0.055998
sS'chi2_best'
p335
S' 245.9379808397'
p336
sS'NUV_ext'
p337
(lp338
F0.121
aF0.13
aF0.075
aF0.003
aF0.127
aF0.001
aF0.13
asS'g_ext'
p339
(lp340
F0.071
aF0.08
aF0.043
aF-999.0
aF0.077
aF-999.0
aF0.08
asS'LgSFR'
p341
(lp342
F0.425
aF0.426
aF0.452
aF0.417
aF0.48
aF0.414
aF0.483
asS'Lgtau_V0'
p343
(lp344
F0.101
aF0.112
aF0.085
aF0.042
aF0.109
aF0.038
aF0.112
asS'Lgb'
p345
(lp346
F1.579
aF1.58
aF1.629
aF1.573
aF1.687
aF1.57
aF1.689
asS'sloan_objid'
p347
S'1237653651846332519'
p348
sS'FUV_ext'
p349
(lp350
F0.161
aF0.17
aF0.097
aF0.003
aF0.167
aF0.001
aF0.17
asS'r_ext'
p351
(lp352
F0.051
aF0.06
aF0.032
aF-530.545
aF0.057
aF-766.248
aF0.06
asS'i_ext'
p353
(lp354
F0.041
aF0.05
aF0.027
aF-530.541
aF0.047
aF-766.244
aF0.05
asS'u_ext'
p355
(lp356
F0.081
aF0.09
aF0.049
aF-999.0
aF0.087
aF-999.0
aF0.09
asS'LgMs'
p357
(lp358
F8.479
aF8.48
aF8.542
aF8.471
aF8.609
aF8.467
aF8.613
asS'modelmag'
p359
(lp360
F18.546969
aF17.760997
aF18.359123
aF17.86078
aF18.345936
aF19.05598
aF19.298131
asS'modelerr'
p361
(lp362
F0.0250336
aF0.0070496
aF0.0117716
aF0.0108154
aF0.0551051
aF0.028225
aF0.0424093
asS'z_ext'
p363
(lp364
F0.041
aF0.05
aF0.027
aF-530.541
aF0.047
aF-766.244
aF0.05
asa(dp365
g329
F0.03
sg330
(lp366
F0.138
aF0.288
aF0.127
aF-0.024
aF0.258
aF-0.191
aF0.284
asg332
(lp367
F-10.099
aF-10.06
aF-10.09
aF-10.216
aF-9.976
aF-10.323
aF-9.842
asg334
F0.028803
sg335
S'   1.0520551946'
p368
sg337
(lp369
F1.238
aF1.36
aF1.237
aF0.924
aF1.511
aF0.728
aF1.788
asg339
(lp370
F0.473
aF0.48
aF0.482
aF0.305
aF0.633
aF0.211
aF0.816
asg341
(lp371
F0.314
aF0.321
aF0.316
aF0.185
aF0.421
aF0.099
aF0.54
asg343
(lp372
F0.993
aF0.95
aF1.07
aF0.72
aF1.43
aF0.539
aF2.11
asg345
(lp373
F-0.545
aF-0.59
aF-0.531
aF-0.687
aF-0.396
aF-0.823
aF-0.226
asg347
S'1237678880497401890'
p374
sg349
(lp375
F1.692
aF1.86
aF1.681
aF1.287
aF2.023
aF1.025
aF2.378
asg351
(lp376
F0.366
aF0.4
aF0.376
aF0.232
aF0.504
aF0.146
aF0.643
asg353
(lp377
F0.313
aF0.32
aF0.322
aF0.199
aF0.432
aF0.124
aF0.553
asg355
(lp378
F0.706
aF0.72
aF0.716
aF0.494
aF0.889
aF0.37
aF1.114
asg357
(lp379
F10.394
aF10.427
aF10.4
aF10.302
aF10.478
aF10.233
aF10.565
asg359
(lp380
F16.436455
aF15.150047
aF14.525096
aF14.22443
aF13.976517
aF17.200329
aF17.703633
asg361
(lp381
F0.0227648
aF0.0027497
aF0.0036502
aF0.0038799
aF0.0081331
aF0.0355041
aF0.0609372
asg363
(lp382
F0.273
aF0.28
aF0.282
aF0.174
aF0.377
aF0.105
aF0.483
asa(dp383
g329
F0.06
sg330
(lp384
F-0.254
aF-0.037
aF-0.289
aF-0.619
aF0.02
aF-0.96
aF0.216
asg332
(lp385
F-9.065
aF-8.99
aF-9.122
aF-9.273
aF-8.909
aF-10.011
aF-8.692
asg334
F0.059597
sg335
S'   7.8824646684'
p386
sg337
(lp387
F1.421
aF1.43
aF1.36
aF0.89
aF1.783
aF0.303
aF2.205
asg339
(lp388
F0.633
aF0.72
aF0.632
aF0.37
aF0.873
aF0.167
aF1.135
asg341
(lp389
F0.09
aF0.122
aF0.032
aF-0.108
aF0.226
aF-0.743
aF0.438
asg343
(lp390
F1.436
aF1.35
aF1.578
aF0.971
aF2.189
aF0.402
aF3.591
asg345
(lp391
F-0.142
aF-0.07
aF-0.144
aF-0.297
aF-0.031
aF-0.592
aF0.635
asg347
S'1237661122387838323'
p392
sg349
(lp393
F1.918
aF1.92
aF1.829
aF1.244
aF2.379
aF0.421
aF2.897
asg351
(lp394
F0.497
aF0.61
aF0.502
aF0.281
aF0.7
aF0.135
aF0.921
asg353
(lp395
F0.426
aF0.53
aF0.432
aF0.235
aF0.6
aF0.115
aF0.797
asg355
(lp396
F0.913
aF0.91
aF0.892
aF0.538
aF1.197
aF0.212
aF1.543
asg357
(lp397
F9.126
aF9.107
aF9.148
aF9.088
aF9.179
aF9.054
aF9.37
asg359
(lp398
F18.990665
aF17.875111
aF17.690872
aF17.457243
aF17.498121
aF19.473788
aF19.895894
asg361
(lp399
F0.0746913
aF0.0114253
aF0.0120943
aF0.0132516
aF0.043256
aF0.027157
aF0.0535483
asg363
(lp400
F0.369
aF0.46
aF0.376
aF0.204
aF0.525
aF0.102
aF0.691
asa(dp401
g329
F0.025
sg330
(lp402
F0.239
aF0.249
aF0.224
aF0.141
aF0.272
aF0.133
aF0.285
asg332
(lp403
F-10.333
aF-10.33
aF-10.284
aF-10.358
aF-10.165
aF-10.468
aF-10.0
asg334
F0.025047
sg335
S'   1.4917116424'
p404
sg337
(lp405
F1.033
aF1.01
aF1.118
aF0.903
aF1.372
aF0.761
aF1.986
asg339
(lp406
F0.401
aF0.41
aF0.42
aF0.311
aF0.571
aF0.193
aF0.679
asg341
(lp407
F0.606
aF0.612
aF0.627
aF0.556
aF0.699
aF0.481
aF0.793
asg343
(lp408
F0.737
aF0.738
aF0.82
aF0.666
aF0.913
aF0.498
aF1.508
asg345
(lp409
F-0.57
aF-0.57
aF-0.539
aF-0.68
aF-0.357
aF-0.69
aF-0.294
asg347
S'1237667253462827120'
p410
sg349
(lp411
F1.423
aF1.43
aF1.515
aF1.243
aF1.842
aF1.051
aF2.526
asg351
(lp412
F0.31
aF0.31
aF0.322
aF0.24
aF0.441
aF0.135
aF0.47
asg353
(lp413
F0.27
aF0.28
aF0.276
aF0.201
aF0.381
aF0.115
aF0.396
asg355
(lp414
F0.596
aF0.6
aF0.645
aF0.494
aF0.832
aF0.371
aF1.156
asg357
(lp415
F10.921
aF10.933
aF10.906
aF10.855
aF10.954
aF10.771
aF10.982
asg359
(lp416
F15.241163
aF13.995019
aF13.324087
aF12.946781
aF12.63337
aF15.926161
aF16.357923
asg361
(lp417
F0.0114931
aF0.0011944
aF0.0011888
aF0.0012433
aF0.0022335
aF0.0142298
aF0.0242715
asg363
(lp418
F0.23
aF0.23
aF0.24
aF0.18
aF0.331
aF0.095
aF0.345
asa(dp419
g329
F0.0325
sg330
(lp420
F0.133
aF0.197
aF0.08
aF-0.02
aF0.241
aF-0.708
aF0.278
asg332
(lp421
F-9.349
aF-9.34
aF-9.342
aF-9.445
aF-9.264
aF-9.533
aF-9.084
asg334
F0.033206
sg335
S'   0.5575597198'
p422
sg337
(lp423
F1.039
aF1.01
aF1.121
aF0.883
aF1.251
aF0.692
aF2.078
asg339
(lp424
F0.445
aF0.46
aF0.48
aF0.309
aF0.568
aF0.222
aF1.086
asg341
(lp425
F-0.009
aF-0.006
aF0.032
aF-0.082
aF0.092
aF-0.158
aF0.425
asg343
(lp426
F0.802
aF0.738
aF0.949
aF0.658
aF1.113
aF0.521
aF2.358
asg345
(lp427
F-0.125
aF-0.1
aF-0.087
aF-0.268
aF-0.016
aF-0.372
aF0.493
asg347
S'1237654670809497758'
p428
sg349
(lp429
F1.425
aF1.39
aF1.522
aF1.218
aF1.693
aF0.964
aF2.708
asg351
(lp430
F0.345
aF0.35
aF0.371
aF0.229
aF0.448
aF0.16
aF0.856
asg353
(lp431
F0.295
aF0.3
aF0.316
aF0.19
aF0.382
aF0.132
aF0.726
asg355
(lp432
F0.643
aF0.64
aF0.702
aF0.508
aF0.793
aF0.382
aF1.448
asg357
(lp433
F9.349
aF9.32
aF9.368
aF9.275
aF9.429
aF9.229
aF9.672
asg359
(lp434
F17.617009
aF16.664867
aF16.312196
aF16.109774
aF15.964172
aF18.072161
aF18.480916
asg361
(lp435
F0.0195618
aF0.0040883
aF0.0040748
aF0.0052894
aF0.0144879
aF0.0068251
aF0.0112247
asg363
(lp436
F0.257
aF0.27
aF0.276
aF0.163
aF0.333
aF0.113
aF0.636
asa(dp437
g329
F0.0625
sg330
(lp438
F0.067
aF0.262
aF0.011
aF-0.227
aF0.227
aF-0.616
aF0.279
asg332
(lp439
F-9.729
aF-9.72
aF-9.731
aF-9.907
aF-9.557
aF-10.117
aF-9.372
asg334
F0.061999
sg335
S'   5.0534689412'
p440
sg337
(lp441
F1.028
aF1.08
aF1.041
aF0.683
aF1.387
aF0.303
aF1.839
asg339
(lp442
F0.383
aF0.31
aF0.412
aF0.214
aF0.595
aF0.086
aF0.879
asg341
(lp443
F-0.752
aF-0.752
aF-0.749
aF-0.91
aF-0.605
aF-1.113
aF-0.417
asg343
(lp444
F0.841
aF0.913
aF0.91
aF0.536
aF1.235
aF0.231
aF2.013
asg345
(lp445
F-0.345
aF-0.24
aF-0.34
aF-0.531
aF-0.164
aF-0.719
aF-0.016
asg347
S'1237655123929202915'
p446
sg349
(lp447
F1.419
aF1.55
aF1.428
aF0.968
aF1.879
aF0.44
aF2.456
asg351
(lp448
F0.288
aF0.25
aF0.316
aF0.154
aF0.46
aF0.059
aF0.698
asg353
(lp449
F0.245
aF0.21
aF0.27
aF0.127
aF0.395
aF0.048
aF0.601
asg355
(lp450
F0.601
aF0.53
aF0.623
aF0.364
aF0.865
aF0.151
aF1.213
asg357
(lp451
F8.965
aF8.933
aF8.976
aF8.877
aF9.055
aF8.797
aF9.177
asg359
(lp452
F20.826555
aF19.575348
aF19.05575
aF18.891622
aF18.588389
aF21.088941
aF21.680462
asg361
(lp453
F0.1567865
aF0.0259587
aF0.0224495
aF0.029046
aF0.0710661
aF0.1195647
aF0.1856971
asg363
(lp454
F0.211
aF0.18
aF0.234
aF0.108
aF0.344
aF0.04
aF0.522
asa(dp455
g329
F0.05
sg330
(lp456
F-0.001
aF0.249
aF-0.073
aF-0.401
aF0.213
aF-0.877
aF0.277
asg332
(lp457
F-9.377
aF-9.46
aF-9.357
aF-9.733
aF-8.96
aF-10.253
aF-8.285
asg334
F0.050098
sg335
S'  12.1831187048'
p458
sg337
(lp459
F1.9
aF1.63
aF2.058
aF1.139
aF2.911
aF0.453
aF4.501
asg339
(lp460
F0.877
aF0.84
aF1.004
aF0.436
aF1.542
aF0.159
aF2.571
asg341
(lp461
F-0.609
aF-0.542
aF-0.584
aF-0.957
aF-0.189
aF-1.456
aF0.444
asg343
(lp462
F1.758
aF1.925
aF1.883
aF1.107
aF2.687
aF0.466
aF3.892
asg345
(lp463
F-0.221
aF-0.01
aF-0.207
aF-0.462
aF-0.034
aF-0.817
aF0.904
asg347
S'1237658803109495136'
p464
sg349
(lp465
F2.547
aF5.88
aF2.749
aF1.57
aF3.869
aF0.676
aF5.875
asg351
(lp466
F0.693
aF0.65
aF0.804
aF0.338
aF1.248
aF0.119
aF2.108
asg353
(lp467
F0.596
aF0.56
aF0.693
aF0.288
aF1.079
aF0.1
aF1.828
asg355
(lp468
F1.227
aF1.07
aF1.369
aF0.663
aF2.028
aF0.243
aF3.279
asg357
(lp469
F8.748
aF8.733
aF8.768
aF8.674
aF8.843
aF8.6
aF9.014
asg359
(lp470
F20.111328
aF19.381531
aF19.019384
aF18.700662
aF18.574275
aF21.636657
aF21.630845
asg361
(lp471
F0.1103086
aF0.0237218
aF0.0250141
aF0.0315795
aF0.0907227
aF0.1973918
aF0.3165146
asg363
(lp472
F0.523
aF0.49
aF0.608
aF0.25
aF0.946
aF0.086
aF1.599
asa(dp473
g329
F0.0977
sg330
(lp474
F-0.039
aF0.275
aF-0.108
aF-0.453
aF0.191
aF-0.872
aF0.273
asg332
(lp475
F-9.324
aF-9.32
aF-9.306
aF-9.556
aF-9.06
aF-9.811
aF-8.675
asg334
F0.097697
sg335
S'   7.5457669829'
p476
sg337
(lp477
F0.926
aF0.63
aF1.043
aF0.394
aF1.648
aF0.085
aF2.763
asg339
(lp478
F0.37
aF0.26
aF0.469
aF0.141
aF0.779
aF0.024
aF1.496
asg341
(lp479
F-0.499
aF-0.472
aF-0.46
aF-0.691
aF-0.22
aF-0.888
aF0.221
asg343
(lp480
F0.771
aF0.213
aF0.95
aF0.299
aF1.574
aF0.062
aF2.786
asg345
(lp481
F-0.163
aF-0.12
aF-0.117
aF-0.336
aF-0.015
aF-0.523
aF0.726
asg347
S'1237664668982116765'
p482
sg349
(lp483
F1.284
aF1.03
aF1.419
aF0.567
aF2.206
aF0.129
aF3.601
asg351
(lp484
F0.279
aF0.15
aF0.363
aF0.102
aF0.608
aF0.015
aF1.196
asg353
(lp485
F0.235
aF0.18
aF0.309
aF0.084
aF0.519
aF0.01
aF1.025
asg355
(lp486
F0.567
aF0.39
aF0.677
aF0.229
aF1.102
aF0.044
aF1.969
asg357
(lp487
F8.812
aF8.787
aF8.841
aF8.709
aF8.957
aF8.62
aF9.181
asg359
(lp488
F21.130686
aF20.125475
aF19.883464
aF19.519333
aF19.884028
aF21.289038
aF21.477121
asg361
(lp489
F0.2020293
aF0.0411815
aF0.0497907
aF0.0512323
aF0.3083682
aF0.3081084
aF0.4396228
asg363
(lp490
F0.203
aF0.12
aF0.268
aF0.071
aF0.451
aF0.008
aF0.891
asa(dp491
g329
F0.0901
sg330
(lp492
F-0.117
aF-0.128
aF-0.121
aF-0.328
aF0.136
aF-0.76
aF0.255
asg332
(lp493
F-10.077
aF-10.11
aF-10.083
aF-10.21
aF-9.965
aF-10.367
aF-9.826
asg334
F0.090135
sg335
S'   6.1769460868'
p494
sg337
(lp495
F2.165
aF2.43
aF2.176
aF1.861
aF2.428
aF1.593
aF2.774
asg339
(lp496
F1.008
aF1.11
aF0.999
aF0.816
aF1.133
aF0.637
aF1.367
asg341
(lp497
F0.712
aF0.694
aF0.71
aF0.572
aF0.826
aF0.405
aF0.986
asg343
(lp498
F1.838
aF1.587
aF1.967
aF1.38
aF2.52
aF1.138
aF3.566
asg345
(lp499
F-0.667
aF-0.66
aF-0.666
aF-0.804
aF-0.526
aF-0.923
aF-0.392
asg347
S'1237661972796670205'
p500
sg349
(lp501
F2.942
aF3.1
aF2.94
aF2.544
aF3.243
aF2.211
aF3.687
asg351
(lp502
F0.816
aF0.84
aF0.806
aF0.657
aF0.918
aF0.507
aF1.112
asg353
(lp503
F0.704
aF0.78
aF0.698
aF0.567
aF0.798
aF0.436
aF0.962
asg355
(lp504
F1.364
aF1.54
aF1.366
aF1.131
aF1.539
aF0.923
aF1.824
asg357
(lp505
F10.774
aF10.733
aF10.788
aF10.699
aF10.865
aF10.622
aF10.966
asg359
(lp506
F18.133929
aF16.845222
aF16.1284
aF15.739685
aF15.476487
aF19.464685
aF20.190421
asg361
(lp507
F0.0396746
aF0.0058801
aF0.0047291
aF0.0047516
aF0.0109532
aF0.0217429
aF0.0373647
asg363
(lp508
F0.618
aF0.67
aF0.613
aF0.498
aF0.704
aF0.379
aF0.851
asa(dp509
g329
F0.0475
sg330
(lp510
F-0.106
aF-0.219
aF-0.128
aF-0.391
aF0.075
aF-0.636
aF0.166
asg332
(lp511
F-9.086
aF-9.07
aF-9.109
aF-9.411
aF-8.885
aF-9.576
aF-8.488
asg334
F0.048333
sg335
S'   7.2425708290'
p512
sg337
(lp513
F1.522
aF1.53
aF1.521
aF1.216
aF1.755
aF0.81
aF2.219
asg339
(lp514
F0.781
aF0.79
aF0.768
aF0.582
aF0.92
aF0.355
aF1.208
asg341
(lp515
F1.177
aF1.184
aF1.138
aF0.854
aF1.328
aF0.792
aF1.347
asg343
(lp516
F1.018
aF1.025
aF1.145
aF0.838
aF1.729
aF0.577
aF1.937
asg345
(lp517
F0.47
aF0.47
aF0.525
aF0.285
aF0.762
aF0.065
aF1.081
asg347
S'1237651271364182239'
p518
sg349
(lp519
F2.011
aF2.02
aF1.993
aF1.624
aF2.28
aF1.1
aF2.849
asg351
(lp520
F0.6
aF0.61
aF0.584
aF0.451
aF0.665
aF0.265
aF0.952
asg353
(lp521
F0.5
aF0.51
aF0.489
aF0.372
aF0.577
aF0.223
aF0.792
asg355
(lp522
F1.053
aF1.06
aF1.055
aF0.818
aF1.285
aF0.52
aF1.558
asg357
(lp523
F10.263
aF10.453
aF10.243
aF10.043
aF10.441
aF9.824
aF10.452
asg359
(lp524
F16.134422
aF15.435935
aF15.220042
aF15.010485
aF14.923665
aF16.227509
aF16.633475
asg361
(lp525
F0.0242601
aF0.0030003
aF0.0035434
aF0.0045421
aF0.0123616
aF0.002821
aF0.0080437
asg363
(lp526
F0.43
aF0.44
aF0.417
aF0.321
aF0.506
aF0.193
aF0.664
asa(dp527
g329
F0.115
sg330
(lp528
F-0.101
aF0.028
aF-0.156
aF-0.517
aF0.169
aF-0.901
aF0.269
asg332
(lp529
F-9.631
aF-9.54
aF-9.626
aF-9.856
aF-9.408
aF-10.095
aF-9.151
asg334
F0.114999
sg335
S'   2.4420888984'
p530
sg337
(lp531
F1.112
aF1.02
aF1.159
aF0.594
aF1.695
aF0.159
aF2.446
asg339
(lp532
F0.442
aF0.27
aF0.496
aF0.206
aF0.769
aF0.05
aF1.239
asg341
(lp533
F-0.217
aF-0.227
aF-0.211
aF-0.433
aF-0.006
aF-0.677
aF0.269
asg343
(lp534
F0.941
aF0.913
aF1.057
aF0.463
aF1.619
aF0.125
aF2.62
asg345
(lp535
F-0.316
aF-0.4
aF-0.311
aF-0.516
aF-0.126
aF-0.729
aF0.144
asg347
S'1237664289929887969'
p536
sg349
(lp537
F1.541
aF1.59
aF1.595
aF0.853
aF2.296
aF0.238
aF3.268
asg351
(lp538
F0.335
aF0.18
aF0.383
aF0.149
aF0.604
aF0.035
aF0.983
asg353
(lp539
F0.284
aF0.22
aF0.326
aF0.124
aF0.517
aF0.027
aF0.846
asg355
(lp540
F0.676
aF0.72
aF0.727
aF0.336
aF1.098
aF0.083
aF1.68
asg357
(lp541
F9.393
aF9.387
aF9.409
aF9.31
aF9.496
aF9.234
aF9.61
asg359
(lp542
F20.668563
aF19.651339
aF19.186731
aF18.88447
aF18.80787
aF21.300702
aF21.387295
asg361
(lp543
F0.1221623
aF0.0241378
aF0.0240275
aF0.0262429
aF0.0709401
aF0.3173757
aF0.4119769
asg363
(lp544
F0.245
aF0.14
aF0.284
aF0.107
aF0.451
aF0.023
aF0.739
asa(dp545
g329
F0.05
sg330
(lp546
F-0.133
aF0.106
aF-0.191
aF-0.582
aF0.151
aF-0.937
aF0.26
asg332
(lp547
F-9.211
aF-9.19
aF-9.278
aF-9.496
aF-9.014
aF-10.328
aF-8.77
asg334
F0.051198
sg335
S'   2.0288376260'
p548
sg337
(lp549
F1.404
aF1.55
aF1.388
aF0.868
aF1.885
aF0.222
aF2.467
asg339
(lp550
F0.605
aF0.6
aF0.632
aF0.327
aF0.908
aF0.099
aF1.278
asg341
(lp551
F-0.475
aF-0.472
aF-0.524
aF-0.73
aF-0.268
aF-1.408
aF-0.034
asg343
(lp552
F1.434
aF1.438
aF1.548
aF0.878
aF2.195
aF0.269
aF3.415
asg345
(lp553
F-0.187
aF-0.14
aF-0.202
aF-0.358
aF-0.049
aF-0.775
aF0.478
asg347
S'1237661972797718613'
p554
sg349
(lp555
F1.896
aF2.27
aF1.868
aF1.213
aF2.513
aF0.341
aF3.258
asg351
(lp556
F0.477
aF0.47
aF0.499
aF0.249
aF0.729
aF0.076
aF1.033
asg353
(lp557
F0.409
aF0.4
aF0.429
aF0.212
aF0.629
aF0.064
aF0.893
asg355
(lp558
F0.891
aF0.77
aF0.897
aF0.51
aF1.254
aF0.136
aF1.712
asg357
(lp559
F8.723
aF8.72
aF8.751
aF8.674
aF8.797
aF8.631
aF9.033
asg359
(lp560
F20.02393
aF18.834667
aF18.591355
aF18.372447
aF18.292532
aF20.520368
aF20.997684
asg361
(lp561
F0.0738103
aF0.01212
aF0.0134158
aF0.0153057
aF0.0501862
aF0.1091219
aF0.2096196
asg363
(lp562
F0.356
aF0.42
aF0.375
aF0.183
aF0.549
aF0.056
aF0.78
asa(dp563
g329
F0.074
sg330
(lp564
F0.055
aF0.288
aF-0.009
aF-0.238
aF0.222
aF-0.756
aF0.278
asg332
(lp565
F-8.742
aF-8.94
aF-8.728
aF-9.117
aF-8.326
aF-9.421
aF-8.038
asg334
F0.073997
sg335
S'   2.4851666265'
p566
sg337
(lp567
F1.364
aF1.6
aF1.395
aF0.504
aF2.212
aF0.092
aF2.987
asg339
(lp568
F0.666
aF0.56
aF0.721
aF0.205
aF1.211
aF0.029
aF1.72
asg341
(lp569
F-0.798
aF-0.647
aF-0.817
aF-1.158
aF-0.515
aF-1.35
aF-0.307
asg343
(lp570
F1.154
aF1.237
aF1.223
aF0.398
aF1.921
aF0.066
aF3.041
asg345
(lp571
F0.071
aF-0.01
aF0.374
aF-0.099
aF1.015
aF-0.248
aF1.471
asg347
S'1237661817632981819'
p572
sg349
(lp573
F1.801
aF2.37
aF1.829
aF0.701
aF2.865
aF0.136
aF3.841
asg351
(lp574
F0.514
aF0.34
aF0.566
aF0.151
aF0.962
aF0.019
aF1.38
asg353
(lp575
F0.434
aF0.09
aF0.481
aF0.126
aF0.818
aF0.014
aF1.18
asg355
(lp576
F0.935
aF0.86
aF0.975
aF0.318
aF1.588
aF0.052
aF2.201
asg357
(lp577
F7.864
aF7.813
aF7.905
aF7.688
aF8.129
aF7.53
aF8.413
asg359
(lp578
F21.649271
aF21.200615
aF21.125713
aF20.830594
aF20.722359
aF22.247169
aF21.755134
asg361
(lp579
F0.1989502
aF0.0576604
aF0.0777475
aF0.0924733
aF0.2682621
aF0.4020322
aF0.4957792
asg363
(lp580
F0.374
aF0.2
aF0.414
aF0.108
aF0.706
aF0.011
aF1.021
asa(dp581
g329
F0.035
sg330
(lp582
F0.02
aF0.262
aF-0.022
aF-0.27
aF0.216
aF-0.673
aF0.277
asg332
(lp583
F-9.553
aF-9.54
aF-9.558
aF-9.717
aF-9.392
aF-9.932
aF-9.234
asg334
F0.035831
sg335
S'   1.2683762678'
p584
sg337
(lp585
F1.371
aF1.39
aF1.375
aF1.029
aF1.732
aF0.658
aF2.063
asg339
(lp586
F0.544
aF0.5
aF0.566
aF0.354
aF0.773
aF0.206
aF0.982
asg341
(lp587
F-0.108
aF-0.134
aF-0.103
aF-0.257
aF0.048
aF-0.446
aF0.208
asg343
(lp588
F1.322
aF1.237
aF1.43
aF0.937
aF1.9
aF0.612
aF2.967
asg345
(lp589
F-0.309
aF-0.35
aF-0.301
aF-0.464
aF-0.15
aF-0.605
aF-0.018
asg347
S'1237658800429662347'
p590
sg349
(lp591
F1.84
aF1.76
aF1.858
aF1.425
aF2.317
aF0.932
aF2.73
asg351
(lp592
F0.423
aF0.38
aF0.441
aF0.263
aF0.609
aF0.153
aF0.781
asg353
(lp593
F0.361
aF0.33
aF0.377
aF0.221
aF0.525
aF0.129
aF0.674
asg355
(lp594
F0.815
aF0.76
aF0.834
aF0.568
aF1.096
aF0.342
aF1.348
asg357
(lp595
F9.433
aF9.44
aF9.449
aF9.374
aF9.514
aF9.319
aF9.617
asg359
(lp596
F18.085779
aF16.971172
aF16.553657
aF16.339115
aF16.123413
aF18.874261
aF19.277793
asg361
(lp597
F0.0304461
aF0.0057212
aF0.005065
aF0.006966
aF0.015583
aF0.0629217
aF0.1064712
asg363
(lp598
F0.314
aF0.29
aF0.329
aF0.191
aF0.458
aF0.11
aF0.588
asa(dp599
g329
F0.0225
sg330
(lp600
F-0.037
aF-0.037
aF-0.049
aF-0.188
aF0.124
aF-0.728
aF0.242
asg332
(lp601
F-9.224
aF-9.29
aF-9.208
aF-9.299
aF-9.117
aF-9.416
aF-8.95
asg334
F0.022192
sg335
S'   3.3245037379'
p602
sg337
(lp603
F0.772
aF0.69
aF0.82
aF0.623
aF0.998
aF0.431
aF1.714
asg339
(lp604
F0.297
aF0.23
aF0.33
aF0.197
aF0.445
aF0.14
aF0.825
asg341
(lp605
F0.229
aF0.227
aF0.258
aF0.165
aF0.328
aF0.09
aF0.596
asg343
(lp606
F0.662
aF0.575
aF0.753
aF0.529
aF0.891
aF0.393
aF2.263
asg345
(lp607
F-0.12
aF-0.04
aF-0.096
aF-0.245
aF-0.022
aF-0.318
aF0.561
asg347
S'1237667782838452274'
p608
sg349
(lp609
F1.077
aF1.02
aF1.129
aF0.878
aF1.361
aF0.628
aF2.195
asg351
(lp610
F0.225
aF0.17
aF0.252
aF0.139
aF0.348
aF0.1
aF0.631
asg353
(lp611
F0.19
aF0.13
aF0.214
aF0.117
aF0.297
aF0.082
aF0.522
asg355
(lp612
F0.451
aF0.38
aF0.496
aF0.347
aF0.635
aF0.234
aF1.154
asg357
(lp613
F9.442
aF9.44
aF9.46
aF9.403
aF9.504
aF9.364
aF9.609
asg359
(lp614
F15.930862
aF15.078083
aF14.789599
aF14.64387
aF14.559189
aF16.353211
aF16.627773
asg361
(lp615
F0.0093084
aF0.0019933
aF0.0022876
aF0.0023614
aF0.0078451
aF0.0032514
aF0.0130659
asg363
(lp616
F0.164
aF0.11
aF0.185
aF0.098
aF0.257
aF0.067
aF0.443
asa(dp617
g329
F0.0525
sg330
(lp618
F-0.057
aF0.158
aF-0.114
aF-0.443
aF0.181
aF-0.845
aF0.273
asg332
(lp619
F-9.79
aF-9.78
aF-9.803
aF-10.021
aF-9.591
aF-10.29
aF-9.372
asg334
F0.051899
sg335
S'   1.8337773160'
p620
sg337
(lp621
F1.311
aF1.14
aF1.318
aF0.81
aF1.797
aF0.384
aF2.315
asg339
(lp622
F0.512
aF0.41
aF0.545
aF0.273
aF0.811
aF0.12
aF1.131
asg341
(lp623
F-0.459
aF-0.414
aF-0.469
aF-0.691
aF-0.257
aF-0.927
aF-0.053
asg343
(lp624
F1.24
aF1.35
aF1.321
aF0.745
aF1.894
aF0.35
aF2.771
asg345
(lp625
F-0.435
aF-0.45
aF-0.434
aF-0.633
aF-0.242
aF-0.827
aF-0.052
asg347
S'1237655463770784033'
p626
sg349
(lp627
F1.782
aF1.12
aF1.791
aF1.145
aF2.416
aF0.571
aF3.071
asg351
(lp628
F0.397
aF0.41
aF0.427
aF0.205
aF0.642
aF0.088
aF0.906
asg353
(lp629
F0.34
aF0.2
aF0.366
aF0.172
aF0.553
aF0.074
aF0.782
asg355
(lp630
F0.765
aF0.59
aF0.793
aF0.429
aF1.139
aF0.197
aF1.525
asg357
(lp631
F9.316
aF9.32
aF9.329
aF9.236
aF9.409
aF9.158
aF9.512
asg359
(lp632
F19.534455
aF18.417288
aF17.913966
aF17.635363
aF17.469208
aF20.44317
aF20.816798
asg361
(lp633
F0.075099
aF0.0151931
aF0.0131701
aF0.0172844
aF0.0505958
aF0.0837941
aF0.1977813
asg363
(lp634
F0.294
aF0.17
aF0.32
aF0.148
aF0.484
aF0.064
aF0.687
asa(dp635
g329
F0.0275
sg330
(lp636
F-0.262
aF-0.297
aF-0.278
aF-0.502
aF-0.089
aF-0.913
aF0.156
asg332
(lp637
F-8.534
aF-8.67
aF-8.53
aF-8.688
aF-8.359
aF-8.824
aF-8.221
asg334
F0.028082
sg335
S'  10.8083175759'
p638
sg337
(lp639
F1.261
aF1.29
aF1.224
aF0.896
aF1.568
aF0.461
aF1.837
asg339
(lp640
F0.583
aF0.59
aF0.587
aF0.377
aF0.784
aF0.22
aF0.961
asg341
(lp641
F0.131
aF0.134
aF0.151
aF0.012
aF0.277
aF-0.094
aF0.443
asg343
(lp642
F1.261
aF2.037
aF1.354
aF0.882
aF1.841
aF0.544
aF2.606
asg345
(lp643
F-0.039
aF-0.01
aF0.099
aF-0.078
aF-0.007
aF-0.119
aF1.352
asg347
S'1237661362370510967'
p644
sg349
(lp645
F1.678
aF1.71
aF1.622
aF1.21
aF2.061
aF0.622
aF2.376
asg351
(lp646
F0.465
aF0.48
aF0.469
aF0.291
aF0.633
aF0.171
aF0.781
asg353
(lp647
F0.4
aF0.41
aF0.402
aF0.247
aF0.545
aF0.142
aF0.671
asg355
(lp648
F0.843
aF0.86
aF0.823
aF0.569
aF1.081
aF0.316
aF1.293
asg357
(lp649
F8.665
aF8.68
aF8.675
aF8.61
aF8.712
aF8.58
aF8.894
asg359
(lp650
F17.256024
aF16.616308
aF16.530862
aF16.457057
aF16.522394
aF17.710246
aF17.95309
asg361
(lp651
F0.0136207
aF0.0040685
aF0.0048656
aF0.007113
aF0.0786937
aF0.0093194
aF0.0221545
asg363
(lp652
F0.341
aF0.35
aF0.348
aF0.21
aF0.469
aF0.121
aF0.584
asa(dp653
g329
F0.025
sg330
(lp654
F0.207
aF0.275
aF0.218
aF0.16
aF0.271
aF0.105
aF0.283
asg332
(lp655
F-10.235
aF-10.23
aF-10.22
aF-10.309
aF-10.134
aF-10.419
aF-10.001
asg334
F0.024086
sg335
S'   5.4954625322'
p656
sg337
(lp657
F1.289
aF1.29
aF1.334
aF1.053
aF1.51
aF0.891
aF1.664
asg339
(lp658
F0.565
aF0.57
aF0.61
aF0.476
aF0.749
aF0.332
aF0.889
asg341
(lp659
F0.414
aF0.414
aF0.464
aF0.351
aF0.547
aF0.251
aF0.76
asg343
(lp660
F0.859
aF0.812
aF0.937
aF0.803
aF1.187
aF0.703
aF1.348
asg345
(lp661
F-0.527
aF-0.55
aF-0.512
aF-0.597
aF-0.49
aF-0.753
aF-0.213
asg347
S'1237665329858150462'
p662
sg349
(lp663
F1.749
aF1.75
aF1.801
aF1.452
aF2.038
aF1.173
aF2.22
asg351
(lp664
F0.454
aF0.46
aF0.49
aF0.367
aF0.609
aF0.233
aF0.729
asg353
(lp665
F0.384
aF0.39
aF0.42
aF0.308
aF0.529
aF0.193
aF0.629
asg355
(lp666
F0.797
aF0.8
aF0.842
aF0.643
aF0.995
aF0.549
aF1.129
asg357
(lp667
F10.66
aF10.64
aF10.679
aF10.606
aF10.789
aF10.521
aF10.798
asg359
(lp668
F15.982897
aF14.580977
aF13.923894
aF13.567342
aF13.276189
aF16.613545
aF17.164884
asg361
(lp669
F0.0100185
aF0.0015678
aF0.0014066
aF0.0017569
aF0.0038114
aF0.0071134
aF0.0169921
asg363
(lp670
F0.343
aF0.35
aF0.371
aF0.276
aF0.459
aF0.173
aF0.559
asa(dp671
g329
F0.035
sg330
(lp672
F0.128
aF0.288
aF0.086
aF-0.059
aF0.249
aF-0.582
aF0.283
asg332
(lp673
F-9.313
aF-9.34
aF-9.286
aF-9.441
aF-9.131
aF-9.578
aF-8.869
asg334
F0.036145
sg335
S'   0.4726753201'
p674
sg337
(lp675
F1.002
aF0.92
aF1.1
aF0.72
aF1.486
aF0.486
aF2.247
asg339
(lp676
F0.417
aF0.42
aF0.479
aF0.244
aF0.697
aF0.151
aF1.161
asg341
(lp677
F-0.375
aF-0.426
aF-0.32
aF-0.485
aF-0.135
aF-0.585
aF0.205
asg343
(lp678
F0.758
aF0.762
aF0.96
aF0.554
aF1.314
aF0.385
aF2.594
asg345
(lp679
F-0.108
aF-0.14
aF-0.036
aF-0.251
aF0.234
aF-0.375
aF0.658
asg347
S'1237665225701523539'
p680
sg349
(lp681
F1.382
aF1.14
aF1.485
aF1.0
aF1.987
aF0.689
aF2.859
asg351
(lp682
F0.323
aF0.24
aF0.369
aF0.176
aF0.533
aF0.104
aF0.913
asg353
(lp683
F0.275
aF0.19
aF0.314
aF0.146
aF0.456
aF0.085
aF0.773
asg355
(lp684
F0.621
aF0.46
aF0.698
aF0.403
aF0.996
aF0.263
aF1.574
asg357
(lp685
F8.93
aF8.907
aF8.961
aF8.87
aF9.029
aF8.819
aF9.212
asg359
(lp686
F18.741458
aF17.810796
aF17.521687
aF17.301336
aF17.13434
aF19.126516
aF19.596353
asg361
(lp687
F0.0332775
aF0.0076349
aF0.0071546
aF0.0099298
aF0.0205134
aF0.0804179
aF0.1514128
asg363
(lp688
F0.24
aF0.3
aF0.273
aF0.126
aF0.395
aF0.072
aF0.669
asa(dp689
g329
F0.01
sg330
(lp690
F0.267
aF0.275
aF0.266
aF0.24
aF0.272
aF0.223
aF0.275
asg332
(lp691
F-10.464
aF-10.46
aF-10.405
aF-10.468
aF-10.46
aF-10.681
aF-10.042
asg334
F0.010143
sg335
S'  16.5258730309'
p692
sg337
(lp693
F1.766
aF1.77
aF1.782
aF1.762
aF1.77
aF0.748
aF1.9
asg339
(lp694
F0.526
aF0.53
aF0.565
aF0.522
aF0.53
aF0.368
aF0.71
asg341
(lp695
F0.339
aF0.344
aF0.402
aF0.334
aF0.344
aF0.191
aF0.763
asg343
(lp696
F1.607
aF1.612
aF1.67
aF1.602
aF1.612
aF0.423
aF1.974
asg345
(lp697
F-0.774
aF-0.77
aF-0.701
aF-0.778
aF-0.77
aF-0.842
aF-0.272
asg347
S'1237655463774191765'
p698
sg349
(lp699
F2.196
aF2.2
aF2.221
aF2.192
aF2.2
aF1.018
aF2.4
asg351
(lp700
F0.336
aF0.34
aF0.373
aF0.332
aF0.34
aF0.298
aF0.51
asg353
(lp701
F0.276
aF0.28
aF0.309
aF0.272
aF0.28
aF0.258
aF0.43
asg355
(lp702
F1.016
aF1.02
aF1.045
aF1.012
aF1.02
aF0.478
aF1.17
asg357
(lp703
F10.794
aF10.8
aF10.802
aF10.789
aF10.798
aF10.787
aF10.856
asg359
(lp704
F14.089795
aF12.688841
aF11.888023
aF11.507749
aF11.14796
aF14.657807
aF15.12119
asg361
(lp705
F0.0044285
aF0.0011843
aF0.0009458
aF0.0008589
aF0.0014093
aF0.0038203
aF0.006764
asg363
(lp706
F0.236
aF0.24
aF0.266
aF0.232
aF0.24
aF0.228
aF0.37
asa(dp707
g329
F0.045
sg330
(lp708
F0.119
aF0.288
aF0.085
aF-0.071
aF0.238
aF-0.387
aF0.282
asg332
(lp709
F-9.773
aF-9.81
aF-9.766
aF-9.924
aF-9.621
aF-10.067
aF-9.473
asg334
F0.04389
sg335
S'   1.5501547208'
p710
sg337
(lp711
F2.057
aF2.07
aF2.059
aF1.664
aF2.433
aF1.313
aF2.968
asg339
(lp712
F0.926
aF1.01
aF0.946
aF0.7
aF1.177
aF0.486
aF1.459
asg341
(lp713
F0.558
aF0.694
aF0.566
aF0.402
aF0.714
aF0.251
aF0.942
asg343
(lp714
F1.574
aF1.575
aF1.682
aF1.241
aF2.043
aF0.988
aF2.972
asg345
(lp715
F-0.338
aF-0.43
aF-0.337
aF-0.51
aF-0.162
aF-0.67
aF-0.048
asg347
S'1237661416603713629'
p716
sg349
(lp717
F2.725
aF2.9
aF2.756
aF2.253
aF3.245
aF1.802
aF3.872
asg351
(lp718
F0.734
aF0.81
aF0.752
aF0.545
aF0.946
aF0.376
aF1.188
asg353
(lp719
F0.627
aF0.69
aF0.648
aF0.467
aF0.816
aF0.321
aF1.028
asg355
(lp720
F1.297
aF1.4
aF1.318
aF1.012
aF1.614
aF0.748
aF2.042
asg357
(lp721
F10.308
aF10.307
aF10.327
aF10.237
aF10.415
aF10.173
aF10.495
asg359
(lp722
F17.340979
aF16.131857
aF15.545732
aF15.222159
aF14.973628
aF18.287075
aF19.011444
asg361
(lp723
F0.0244462
aF0.003483
aF0.0043126
aF0.0029421
aF0.0096596
aF0.0462202
aF0.1076346
asg363
(lp724
F0.549
aF0.61
aF0.568
aF0.408
aF0.716
aF0.281
aF0.908
asa(dp725
g329
F0.045
sg330
(lp726
F0.237
aF0.275
aF0.215
aF0.125
aF0.271
aF0.07
aF0.284
asg332
(lp727
F-10.558
aF-10.54
aF-10.566
aF-10.688
aF-10.455
aF-10.758
aF-10.378
asg334
F0.044297
sg335
S'  26.8382582153'
p728
sg337
(lp729
F1.569
aF1.63
aF1.539
aF1.351
aF1.742
aF1.005
aF2.065
asg339
(lp730
F0.661
aF0.79
aF0.649
aF0.458
aF0.789
aF0.33
aF0.88
asg341
(lp731
F0.535
aF0.589
aF0.531
aF0.421
aF0.616
aF0.315
aF0.718
asg343
(lp732
F1.035
aF0.95
aF1.134
aF0.864
aF1.333
aF0.662
aF2.267
asg345
(lp733
F-0.846
aF-0.84
aF-0.84
aF-0.952
aF-0.723
aF-1.081
aF-0.605
asg347
S'1237661387606589574'
p734
sg349
(lp735
F2.125
aF2.2
aF2.082
aF1.826
aF2.361
aF1.392
aF2.781
asg351
(lp736
F0.517
aF0.65
aF0.522
aF0.361
aF0.648
aF0.261
aF0.718
asg353
(lp737
F0.445
aF0.56
aF0.451
aF0.312
aF0.558
aF0.221
aF0.618
asg355
(lp738
F0.943
aF1.05
aF0.918
aF0.721
aF1.05
aF0.51
aF1.267
asg357
(lp739
F11.081
aF11.12
aF11.092
aF11.014
aF11.162
aF10.963
aF11.222
asg359
(lp740
F17.015864
aF15.287091
aF14.488456
aF14.107896
aF13.793731
aF17.687903
aF18.598048
asg361
(lp741
F0.0186699
aF0.0028394
aF0.0024094
aF0.002377
aF0.004801
aF0.0480061
aF0.0970479
asg363
(lp742
F0.387
aF0.5
aF0.397
aF0.275
aF0.496
aF0.192
aF0.547
asa(dp743
g329
F0.055
sg330
(lp744
F0.142
aF0.288
aF0.107
aF-0.039
aF0.244
aF-0.374
aF0.283
asg332
(lp745
F-9.911
aF-9.98
aF-9.895
aF-10.046
aF-9.752
aF-10.191
aF-9.569
asg334
F0.054697
sg335
S'   6.0931351311'
p746
sg337
(lp747
F1.766
aF1.84
aF1.787
aF1.399
aF2.172
aF1.018
aF2.836
asg339
(lp748
F0.749
aF0.78
aF0.776
aF0.535
aF0.999
aF0.337
aF1.396
asg341
(lp749
F0.541
aF0.566
aF0.545
aF0.387
aF0.694
aF0.224
aF0.873
asg343
(lp750
F1.426
aF1.138
aF1.516
aF1.089
aF1.936
aF0.818
aF2.852
asg345
(lp751
F-0.425
aF-0.28
aF-0.407
aF-0.594
aF-0.238
aF-0.742
aF-0.065
asg347
S'1237661464913772832'
p752
sg349
(lp753
F2.379
aF2.82
aF2.399
aF1.896
aF2.876
aF1.407
aF3.747
asg351
(lp754
F0.588
aF0.66
aF0.611
aF0.409
aF0.801
aF0.251
aF1.13
asg353
(lp755
F0.505
aF0.57
aF0.525
aF0.35
aF0.689
aF0.214
aF0.98
asg355
(lp756
F1.092
aF1.1
aF1.113
aF0.816
aF1.396
aF0.528
aF1.879
asg357
(lp757
F10.418
aF10.413
aF10.434
aF10.342
aF10.516
aF10.27
aF10.614
asg359
(lp758
F17.601905
aF16.397556
aF15.837769
aF15.433156
aF15.211339
aF18.561628
aF19.097365
asg361
(lp759
F0.0155271
aF0.0041975
aF0.0033242
aF0.0034732
aF0.007617
aF0.059677
aF0.1159323
asg363
(lp760
F0.442
aF0.5
aF0.46
aF0.305
aF0.604
aF0.185
aF0.86
asa(dp761
g329
F0.0882
sg330
(lp762
F-0.132
aF-0.076
aF-0.198
aF-0.585
aF0.138
aF-0.926
aF0.267
asg332
(lp763
F-9.286
aF-9.1
aF-9.378
aF-9.769
aF-8.955
aF-10.859
aF-8.544
asg334
F0.088197
sg335
S'   4.6679925107'
p764
sg337
(lp765
F2.258
aF2.79
aF2.22
aF1.233
aF3.048
aF0.45
aF4.001
asg339
(lp766
F1.102
aF1.08
aF1.117
aF0.538
aF1.615
aF0.172
aF2.242
asg341
(lp767
F0.773
aF1.02
aF0.677
aF0.26
aF1.108
aF-0.741
aF1.512
asg343
(lp768
F1.961
aF1.925
aF2.055
aF1.303
aF2.787
aF0.513
aF4.083
asg345
(lp769
F-0.226
aF-0.18
aF-0.284
aF-0.517
aF-0.056
aF-1.266
aF0.47
asg347
S'1237665128029159739'
p770
sg349
(lp771
F3.031
aF3.06
aF2.98
aF1.721
aF4.077
aF0.691
aF5.261
asg351
(lp772
F0.882
aF1.04
aF0.9
aF0.429
aF1.309
aF0.13
aF1.844
asg353
(lp773
F0.762
aF1.0
aF0.779
aF0.37
aF1.136
aF0.115
aF1.604
asg355
(lp774
F1.511
aF1.93
aF1.503
aF0.757
aF2.125
aF0.254
aF2.876
asg357
(lp775
F10.037
aF10.04
aF10.053
aF9.977
aF10.109
aF9.907
aF10.272
asg359
(lp776
F18.441745
aF17.36107
aF16.940824
aF16.674853
aF16.569653
aF19.534179
aF20.127553
asg361
(lp777
F0.0776473
aF0.0115128
aF0.0127667
aF0.0146403
aF0.0511175
aF0.1246188
aF0.3388111
asg363
(lp778
F0.667
aF0.63
aF0.683
aF0.323
aF0.997
aF0.099
aF1.404
asa(dp779
g329
F0.09
sg330
(lp780
F-0.16
aF0.288
aF-0.201
aF-0.601
aF0.169
aF-0.918
aF0.271
asg332
(lp781
F-8.627
aF-8.69
aF-8.633
aF-8.944
aF-8.292
aF-9.309
aF-8.043
asg334
F0.089998
sg335
S'  16.2552399619'
p782
sg337
(lp783
F0.674
aF0.06
aF0.757
aF0.187
aF1.313
aF0.029
aF2.0
asg339
(lp784
F0.301
aF0.02
aF0.366
aF0.076
aF0.646
aF0.006
aF1.076
asg341
(lp785
F-1.085
aF-1.195
aF-1.084
aF-1.287
aF-0.852
aF-1.488
aF-0.657
asg343
(lp786
F0.538
aF0.025
aF0.688
aF0.136
aF1.23
aF0.015
aF2.164
asg345
(lp787
F-0.025
aF-0.01
aF0.21
aF-0.098
aF0.843
aF-0.249
aF1.441
asg347
S'1237662302449566721'
p788
sg349
(lp789
F0.93
aF0.08
aF1.016
aF0.267
aF1.727
aF0.044
aF2.585
asg351
(lp790
F0.23
aF0.02
aF0.285
aF0.056
aF0.505
aF0.002
aF0.858
asg353
(lp791
F0.192
aF0.01
aF0.242
aF0.045
aF0.429
aF-0.0
aF0.733
asg355
(lp792
F0.437
aF0.04
aF0.513
aF0.117
aF0.901
aF0.015
aF1.427
asg357
(lp793
F7.526
aF7.493
aF7.542
aF7.342
aF7.718
aF7.184
aF7.979
asg359
(lp794
F22.562078
aF21.883853
aF21.509492
aF22.161665
aF21.208348
aF21.215451
aF21.845703
asg361
(lp795
F0.3716781
aF0.0791649
aF0.0860464
aF0.2082902
aF0.3943995
aF0.4328125
aF0.4931072
asg363
(lp796
F0.164
aF0.01
aF0.208
aF0.037
aF0.369
aF-0.001
aF0.633
asa(dp797
g329
F0.03
sg330
(lp798
F-0.082
aF-0.154
aF-0.118
aF-0.365
aF0.144
aF-0.84
aF0.258
asg332
(lp799
F-9.867
aF-9.78
aF-9.86
aF-10.007
aF-9.717
aF-10.139
aF-9.594
asg334
F0.029337
sg335
S'   3.4368984233'
p800
sg337
(lp801
F1.085
aF0.94
aF1.099
aF0.791
aF1.401
aF0.55
aF1.693
asg339
(lp802
F0.406
aF0.4
aF0.429
aF0.256
aF0.579
aF0.162
aF0.777
asg341
(lp803
F-0.574
aF-0.647
aF-0.564
aF-0.697
aF-0.427
aF-0.821
aF-0.309
asg343
(lp804
F0.979
aF0.762
aF1.106
aF0.704
aF1.489
aF0.489
aF2.321
asg345
(lp805
F-0.458
aF-0.4
aF-0.449
aF-0.635
aF-0.301
aF-0.762
aF-0.024
asg347
S'1237663543144415680'
p806
sg349
(lp807
F1.485
aF1.47
aF1.508
aF1.12
aF1.883
aF0.776
aF2.245
asg351
(lp808
F0.316
aF0.23
aF0.334
aF0.193
aF0.456
aF0.116
aF0.625
asg353
(lp809
F0.272
aF0.31
aF0.286
aF0.163
aF0.393
aF0.097
aF0.541
asg355
(lp810
F0.615
aF0.43
aF0.633
aF0.416
aF0.828
aF0.288
aF1.073
asg357
(lp811
F9.276
aF9.28
aF9.29
aF9.2
aF9.364
aF9.127
aF9.461
asg359
(lp812
F18.453889
aF17.333375
aF16.808592
aF16.544904
aF16.415569
aF19.287514
aF19.688266
asg361
(lp813
F0.0464187
aF0.0070831
aF0.0070953
aF0.0079709
aF0.0244528
aF0.0371891
aF0.0549957
asg363
(lp814
F0.235
aF0.27
aF0.249
aF0.139
aF0.342
aF0.083
aF0.472
asa(dp815
g329
F0.025
sg330
(lp816
F0.012
aF0.015
aF-0.005
aF-0.238
aF0.213
aF-0.458
aF0.277
asg332
(lp817
F-10.251
aF-10.35
aF-10.222
aF-10.366
aF-10.07
aF-10.494
aF-9.916
asg334
F0.024533
sg335
S'   2.0551213301'
p818
sg337
(lp819
F2.726
aF2.66
aF2.751
aF2.417
aF3.062
aF2.153
aF3.532
asg339
(lp820
F1.353
aF1.36
aF1.328
aF1.123
aF1.495
aF0.965
aF1.701
asg341
(lp821
F1.187
aF1.09
aF1.195
aF1.059
aF1.332
aF0.901
aF1.46
asg343
(lp822
F2.106
aF1.425
aF2.275
aF1.629
aF2.979
aF1.41
aF4.246
asg345
(lp823
F-0.702
aF-0.88
aF-0.692
aF-0.869
aF-0.547
aF-0.982
aF-0.384
asg347
S'1237680093256351872'
p824
sg349
(lp825
F3.658
aF4.01
aF3.682
aF3.258
aF4.052
aF2.918
aF4.72
asg351
(lp826
F1.1
aF1.11
aF1.079
aF0.891
aF1.23
aF0.78
aF1.393
asg353
(lp827
F0.952
aF0.96
aF0.936
aF0.773
aF1.07
aF0.68
aF1.205
asg355
(lp828
F1.77
aF1.86
aF1.76
aF1.468
aF1.987
aF1.292
aF2.207
asg357
(lp829
F11.405
aF11.293
aF11.41
aF11.298
aF11.502
aF11.245
aF11.573
asg359
(lp830
F14.68753
aF13.174533
aF12.381235
aF11.961311
aF11.684728
aF16.158887
aF17.108453
asg361
(lp831
F0.0109078
aF0.0009072
aF0.0011123
aF0.0010603
aF0.0023109
aF0.0260372
aF0.0544175
asg363
(lp832
F0.835
aF0.85
aF0.824
aF0.681
aF0.942
aF0.595
aF1.058
asa(dp833
g329
F0.015
sg330
(lp834
F-0.305
aF-0.297
aF-0.325
aF-0.571
aF-0.299
aF-0.582
aF0.008
asg332
(lp835
F-9.306
aF-9.3
aF-9.308
aF-9.313
aF-9.302
aF-9.514
aF-9.3
asg334
F0.014997
sg335
S'  19.2892654937'
p836
sg337
(lp837
F3.625
aF3.63
aF3.605
aF3.621
aF3.628
aF3.341
aF3.63
asg339
(lp838
F1.706
aF1.71
aF1.753
aF1.701
aF2.01
aF1.535
aF2.019
asg341
(lp839
F0.176
aF0.181
aF0.243
aF0.171
aF0.509
aF0.094
aF0.519
asg343
(lp840
F1.807
aF1.812
aF1.921
aF1.802
aF2.451
aF1.719
aF2.461
asg345
(lp841
F0.036
aF0.04
aF0.072
aF0.031
aF0.232
aF-0.185
aF0.24
asg347
S'1237672764431927071'
p842
sg349
(lp843
F4.803
aF4.81
aF4.754
aF4.686
aF4.808
aF4.391
aF4.81
asg351
(lp844
F1.206
aF1.21
aF1.27
aF1.201
aF1.58
aF1.066
aF1.589
asg353
(lp845
F0.976
aF0.98
aF1.04
aF0.971
aF1.34
aF0.856
aF1.349
asg355
(lp846
F2.446
aF2.45
aF2.461
aF2.441
aF2.59
aF2.261
aF2.599
asg357
(lp847
F9.462
aF9.467
aF9.539
aF9.456
aF9.814
aF9.454
aF9.825
asg359
(lp848
F16.292655
aF15.277734
aF14.754886
aF14.49793
aF14.340172
aF16.810085
aF17.845123
asg361
(lp849
F0.0146979
aF0.0032467
aF0.0028389
aF0.0029662
aF0.0078341
aF0.0143561
aF0.0245455
asg363
(lp850
F0.806
aF0.81
aF0.87
aF0.801
aF1.16
aF0.706
aF1.169
asa(dp851
g329
F0.106
sg330
(lp852
F-0.033
aF0.275
aF-0.089
aF-0.401
aF0.194
aF-0.833
aF0.273
asg332
(lp853
F-9.382
aF-9.42
aF-9.353
aF-9.542
aF-9.187
aF-9.695
aF-8.862
asg334
F0.105996
sg335
S'   2.4668530096'
p854
sg337
(lp855
F0.608
aF0.43
aF0.791
aF0.241
aF1.415
aF0.045
aF2.505
asg339
(lp856
F0.239
aF0.11
aF0.36
aF0.079
aF0.658
aF0.011
aF1.382
asg341
(lp857
F0.01
aF-0.099
aF0.078
aF-0.134
aF0.334
aF-0.241
aF0.657
asg343
(lp858
F0.43
aF0.262
aF0.665
aF0.166
aF1.187
aF0.024
aF2.482
asg345
(lp859
F-0.141
aF-0.2
aF-0.048
aF-0.323
aF0.313
aF-0.429
aF0.704
asg347
S'1237680263453868246'
p860
sg349
(lp861
F0.855
aF0.48
aF1.068
aF0.353
aF1.862
aF0.07
aF3.177
asg351
(lp862
F0.176
aF0.08
aF0.273
aF0.053
aF0.494
aF0.005
aF1.075
asg353
(lp863
F0.146
aF0.07
aF0.229
aF0.043
aF0.408
aF0.002
aF0.904
asg355
(lp864
F0.372
aF0.17
aF0.52
aF0.136
aF0.955
aF0.022
aF1.82
asg357
(lp865
F9.389
aF9.347
aF9.425
aF9.303
aF9.546
aF9.237
aF9.755
asg359
(lp866
F19.685368
aF18.960997
aF18.623673
aF18.391346
aF18.385859
aF19.939145
aF20.202605
asg361
(lp867
F0.1015155
aF0.0175116
aF0.0198748
aF0.0230132
aF0.0896993
aF0.1783119
aF0.3099813
asg363
(lp868
F0.126
aF0.06
aF0.197
aF0.035
aF0.349
aF0.001
aF0.769
asa(dp869
g329
F0.02
sg330
(lp870
F0.024
aF0.184
aF-0.035
aF-0.3
aF0.206
aF-0.739
aF0.268
asg332
(lp871
F-9.548
aF-9.59
aF-9.549
aF-9.68
aF-9.428
aF-9.856
aF-9.244
asg334
F0.020877
sg335
S'   7.8710963006'
p872
sg337
(lp873
F2.463
aF2.47
aF2.452
aF2.155
aF2.77
aF1.756
aF3.098
asg339
(lp874
F1.184
aF1.1
aF1.189
aF0.975
aF1.394
aF0.79
aF1.612
asg341
(lp875
F0.793
aF0.706
aF0.797
aF0.662
aF0.922
aF0.468
aF1.105
asg343
(lp876
F2.008
aF1.663
aF2.184
aF1.669
aF2.7
aF1.424
aF3.639
asg345
(lp877
F-0.337
aF-0.34
aF-0.302
aF-0.46
aF-0.145
aF-0.59
aF0.124
asg347
S'1237680305866277243'
p878
sg349
(lp879
F3.265
aF3.06
aF3.271
aF2.873
aF3.678
aF2.377
aF4.102
asg351
(lp880
F0.953
aF0.88
aF0.956
aF0.781
aF1.128
aF0.623
aF1.302
asg353
(lp881
F0.823
aF0.83
aF0.827
aF0.673
aF0.976
aF0.538
aF1.118
asg355
(lp882
F1.59
aF1.56
aF1.602
aF1.358
aF1.851
aF1.069
aF2.11
asg357
(lp883
F10.326
aF10.32
aF10.34
aF10.276
aF10.393
aF10.219
aF10.509
asg359
(lp884
F15.402569
aF14.255262
aF13.742772
aF13.418945
aF13.198639
aF16.60209
aF17.372011
asg361
(lp885
F0.0153678
aF0.0015627
aF0.0045464
aF0.0028472
aF0.0050136
aF0.0260542
aF0.0546506
asg363
(lp886
F0.722
aF0.67
aF0.726
aF0.591
aF0.858
aF0.472
aF0.978
asa(dp887
g329
F0.0375
sg330
(lp888
F0.172
aF0.249
aF0.121
aF-0.015
aF0.25
aF-0.447
aF0.282
asg332
(lp889
F-9.657
aF-9.69
aF-9.641
aF-9.763
aF-9.524
aF-9.868
aF-9.307
asg334
F0.03869
sg335
S'   3.4592115891'
p890
sg337
(lp891
F0.896
aF0.98
aF0.917
aF0.669
aF1.047
aF0.522
aF1.639
asg339
(lp892
F0.362
aF0.36
aF0.379
aF0.228
aF0.48
aF0.143
aF0.729
asg341
(lp893
F0.576
aF0.612
aF0.599
aF0.485
aF0.668
aF0.418
aF0.971
asg343
(lp894
F0.625
aF0.7
aF0.709
aF0.508
aF0.765
aF0.393
aF1.765
asg345
(lp895
F-0.188
aF-0.16
aF-0.178
aF-0.362
aF-0.064
aF-0.465
aF0.32
asg347
S'1237672765517070488'
p896
sg349
(lp897
F1.233
aF1.35
aF1.256
aF0.936
aF1.428
aF0.737
aF2.118
asg351
(lp898
F0.281
aF0.3
aF0.292
aF0.167
aF0.37
aF0.095
aF0.585
asg353
(lp899
F0.238
aF0.24
aF0.249
aF0.141
aF0.32
aF0.078
aF0.513
asg355
(lp900
F0.538
aF0.6
aF0.561
aF0.384
aF0.667
aF0.281
aF1.059
asg357
(lp901
F10.225
aF10.267
aF10.233
aF10.126
aF10.304
aF10.07
aF10.434
asg359
(lp902
F16.49486
aF15.417916
aF15.015683
aF14.744756
aF14.58457
aF16.854162
aF17.264944
asg361
(lp903
F0.0126038
aF0.0024695
aF0.0078642
aF0.002765
aF0.0066634
aF0.0237325
aF0.0404469
asg363
(lp904
F0.206
aF0.21
aF0.216
aF0.121
aF0.28
aF0.066
aF0.443
asa(dp905
g329
F0.0375
sg330
(lp906
F0.007
aF0.002
aF-0.005
aF-0.209
aF0.203
aF-0.48
aF0.276
asg332
(lp907
F-9.937
aF-9.92
aF-9.927
aF-10.055
aF-9.81
aF-10.189
aF-9.624
asg334
F0.037989
sg335
S'   8.1201375392'
p908
sg337
(lp909
F2.215
aF2.01
aF2.206
aF1.91
aF2.502
aF1.565
aF2.794
asg339
(lp910
F1.026
aF1.0
aF1.032
aF0.844
aF1.222
aF0.691
aF1.39
asg341
(lp911
F0.951
aF0.892
aF0.959
aF0.825
aF1.08
aF0.688
aF1.244
asg343
(lp912
F1.793
aF1.825
aF1.872
aF1.373
aF2.354
aF1.116
aF3.482
asg345
(lp913
F-0.503
aF-0.47
aF-0.495
aF-0.687
aF-0.341
aF-0.774
aF-0.166
asg347
S'1237679457068777501'
p914
sg349
(lp915
F2.967
aF3.12
aF2.96
aF2.58
aF3.358
aF2.154
aF3.694
asg351
(lp916
F0.822
aF0.81
aF0.83
aF0.676
aF0.98
aF0.551
aF1.115
asg353
(lp917
F0.709
aF0.77
aF0.719
aF0.585
aF0.845
aF0.475
aF0.964
asg355
(lp918
F1.412
aF1.44
aF1.402
aF1.185
aF1.636
aF0.95
aF1.838
asg357
(lp919
F10.868
aF10.813
aF10.88
aF10.786
aF10.962
aF10.725
aF11.039
asg359
(lp920
F15.971321
aF14.711742
aF13.996809
aF13.707664
aF13.451629
aF17.165247
aF17.945518
asg361
(lp921
F0.0231751
aF0.0025295
aF0.0020634
aF0.0023387
aF0.0045894
aF0.0273915
aF0.0575579
asg363
(lp922
F0.624
aF0.68
aF0.631
aF0.512
aF0.742
aF0.419
aF0.845
asa(dp923
g329
F0.03
sg330
(lp924
F-0.04
aF0.21
aF-0.128
aF-0.541
aF0.2
aF-0.966
aF0.276
asg332
(lp925
F-9.858
aF-9.76
aF-9.968
aF-10.134
aF-9.683
aF-11.995
aF-9.528
asg334
F0.028923
sg335
S'  18.3219984981'
p926
sg337
(lp927
F1.316
aF1.34
aF1.283
aF0.863
aF1.671
aF0.308
aF2.005
asg339
(lp928
F0.536
aF0.41
aF0.523
aF0.308
aF0.712
aF0.146
aF0.92
asg341
(lp929
F1.107
aF1.254
aF1.01
aF0.869
aF1.258
aF-0.816
aF1.4
asg343
(lp930
F1.544
aF1.225
aF1.65
aF0.859
aF2.364
aF0.478
aF3.943
asg345
(lp931
F-0.559
aF-0.5
aF-0.613
aF-0.714
aF-0.427
aF-2.155
aF-0.19
asg347
S'1237679034014367754'
p932
sg349
(lp933
F1.8
aF1.81
aF1.752
aF1.257
aF2.213
aF0.408
aF2.654
asg351
(lp934
F0.423
aF0.31
aF0.415
aF0.245
aF0.578
aF0.109
aF0.746
asg353
(lp935
F0.363
aF0.26
aF0.357
aF0.208
aF0.498
aF0.098
aF0.646
asg355
(lp936
F0.746
aF0.93
aF0.749
aF0.456
aF0.988
aF0.212
aF1.26
asg357
(lp937
F10.945
aF10.92
aF10.972
aF10.872
aF11.094
aF10.801
aF11.171
asg359
(lp938
F14.163213
aF12.993623
aF12.603796
aF12.284901
aF12.023144
aF15.334782
aF15.817426
asg361
(lp939
F0.0047235
aF0.0014096
aF0.0011785
aF0.0011818
aF0.0019689
aF0.0048163
aF0.0089128
asg363
(lp940
F0.316
aF0.23
aF0.313
aF0.183
aF0.436
aF0.088
aF0.573
asa(dp941
g329
F0.0962
sg330
(lp942
F0.036
aF0.028
aF-0.004
aF-0.19
aF0.2
aF-0.79
aF0.272
asg332
(lp943
F-9.283
aF-9.28
aF-9.274
aF-9.493
aF-9.069
aF-9.829
aF-8.474
asg334
F0.096199
sg335
S'   5.6534592018'
p944
sg337
(lp945
F3.748
aF4.0
aF3.822
aF3.16
aF4.392
aF2.418
aF5.985
asg339
(lp946
F1.955
aF1.87
aF2.035
aF1.609
aF2.374
aF1.178
aF3.296
asg341
(lp947
F1.121
aF1.347
aF1.14
aF0.909
aF1.346
aF0.579
aF1.888
asg343
(lp948
F2.663
aF2.062
aF2.767
aF2.082
aF3.461
aF1.758
aF4.514
asg345
(lp949
F-0.161
aF-0.2
aF-0.143
aF-0.34
aF-0.03
aF-0.555
aF0.617
asg347
S'1237678540627378537'
p950
sg349
(lp951
F4.94
aF5.13
aF5.082
aF4.252
aF5.83
aF3.275
aF7.895
asg351
(lp952
F1.594
aF1.75
aF1.65
aF1.304
aF1.942
aF0.951
aF2.704
asg353
(lp953
F1.383
aF1.3
aF1.429
aF1.126
aF1.692
aF0.817
aF2.347
asg355
(lp954
F2.599
aF2.49
aF2.671
aF2.155
aF3.078
aF1.594
aF4.275
asg357
(lp955
F10.396
aF10.373
aF10.416
aF10.34
aF10.466
aF10.295
aF10.655
asg359
(lp956
F18.944541
aF17.700714
aF17.106712
aF16.705779
aF16.463914
aF20.33242
aF21.478916
asg361
(lp957
F0.0370611
aF0.0066899
aF0.0056287
aF0.0055778
aF0.0125603
aF0.1352157
aF0.34141
asg363
(lp958
F1.213
aF1.14
aF1.256
aF0.99
aF1.492
aF0.714
aF2.065
asa(dp959
g329
F0.04
sg330
(lp960
F-0.455
aF-0.688
aF-0.43
aF-0.787
aF-0.081
aF-0.979
aF0.205
asg332
(lp961
F-9.889
aF-9.98
aF-9.992
aF-10.376
aF-9.534
aF-11.731
aF-9.186
asg334
F0.038997
sg335
S'   2.8694643397'
p962
sg337
(lp963
F0.733
aF0.4
aF0.801
aF0.211
aF1.346
aF0.014
aF2.071
asg339
(lp964
F0.279
aF0.0
aF0.35
aF0.087
aF0.618
aF-0.022
aF1.026
asg341
(lp965
F-1.017
aF-1.137
aF-1.113
aF-1.453
aF-0.635
aF-3.031
aF-0.275
asg343
(lp966
F0.896
aF0.013
aF1.027
aF0.24
aF1.755
aF0.008
aF2.882
asg345
(lp967
F-0.622
aF-0.79
aF-0.69
aF-0.908
aF-0.339
aF-2.009
aF-0.101
asg347
S'1237680305869160621'
p968
sg349
(lp969
F1.065
aF0.03
aF1.13
aF0.35
aF1.869
aF0.024
aF2.771
asg351
(lp970
F0.22
aF0.0
aF0.28
aF0.07
aF0.492
aF-0.017
aF0.83
asg353
(lp971
F0.189
aF0.0
aF0.241
aF0.059
aF0.426
aF-0.014
aF0.716
asg355
(lp972
F0.402
aF0.01
aF0.485
aF0.125
aF0.855
aF0.004
aF1.376
asg357
(lp973
F8.88
aF8.88
aF8.901
aF8.806
aF8.981
aF8.754
aF9.127
asg359
(lp974
F19.305956
aF18.120808
aF17.751152
aF17.599175
aF17.505112
aF20.455426
aF20.439829
asg361
(lp975
F0.0824252
aF0.0113402
aF0.0137633
aF0.0181936
aF0.0607107
aF0.1818563
aF0.1560468
asg363
(lp976
F0.164
aF0.0
aF0.211
aF0.05
aF0.371
aF-0.014
aF0.627
asa(dp977
g329
F0.148
sg330
(lp978
F0.081
aF0.236
aF-0.039
aF-0.432
aF0.236
aF-0.858
aF0.28
asg332
(lp979
F-9.342
aF-9.29
aF-9.344
aF-9.463
aF-9.216
aF-9.813
aF-9.017
asg334
F0.147999
sg335
S'   7.3196072221'
p980
sg337
(lp981
F0.381
aF0.08
aF0.43
aF0.074
aF0.814
aF0.002
aF1.236
asg339
(lp982
F0.123
aF0.03
aF0.189
aF0.025
aF0.342
aF-0.026
aF0.614
asg341
(lp983
F-0.278
aF-0.321
aF-0.227
aF-0.328
aF-0.101
aF-0.391
aF0.061
asg343
(lp984
F0.217
aF0.338
aF0.315
aF0.041
aF0.509
aF-0.015
aF1.465
asg345
(lp985
F-0.078
aF0.42
aF0.015
aF-0.208
aF0.348
aF-0.3
aF0.537
asg347
S'1237655501884359334'
p986
sg349
(lp987
F0.521
aF0.57
aF0.583
aF0.107
aF1.084
aF0.003
aF1.591
asg351
(lp988
F0.075
aF0.02
aF0.133
aF0.016
aF0.238
aF-0.01
aF0.426
asg353
(lp989
F0.057
aF0.02
aF0.106
aF0.011
aF0.19
aF-0.005
aF0.345
asg355
(lp990
F0.231
aF0.24
aF0.282
aF0.043
aF0.534
aF-0.009
aF0.875
asg357
(lp991
F9.07
aF9.093
aF9.11
aF8.929
aF9.308
aF8.83
aF9.502
asg359
(lp992
F21.196784
aF20.386483
aF19.979411
aF19.841894
aF19.906003
aF20.913495
aF21.046597
asg361
(lp993
F0.1476384
aF0.0359695
aF0.0344583
aF0.0476333
aF0.1879952
aF0.0157162
aF0.0338591
asg363
(lp994
F0.046
aF0.02
aF0.088
aF0.007
aF0.161
aF-0.005
aF0.295
asa(dp995
g329
F0.015
sg330
(lp996
F-0.504
aF-0.909
aF-0.463
aF-0.796
aF-0.126
aF-0.92
aF0.195
asg332
(lp997
F-8.634
aF-8.55
aF-8.593
aF-8.769
aF-8.407
aF-8.841
aF-8.212
asg334
F0.013769
sg335
S'   9.4671365842'
p998
sg337
(lp999
F0.26
aF0.3
aF0.3
aF0.09
aF0.513
aF0.011
aF0.856
asg339
(lp1000
F0.104
aF0.04
aF0.133
aF0.031
aF0.237
aF-0.008
aF0.388
asg341
(lp1001
F-1.654
aF-1.627
aF-1.627
aF-1.744
aF-1.519
aF-1.774
aF-1.307
asg343
(lp1002
F0.193
aF0.175
aF0.283
aF0.062
aF0.526
aF0.006
aF1.011
asg345
(lp1003
F-0.049
aF-0.03
aF0.009
aF-0.099
aF-0.017
aF-0.146
aF1.065
asg347
S'1237663479795613843'
p1004
sg349
(lp1005
F0.36
aF0.42
aF0.413
aF0.134
aF0.713
aF0.031
aF1.124
asg351
(lp1006
F0.076
aF0.03
aF0.104
aF0.021
aF0.187
aF-0.004
aF0.308
asg353
(lp1007
F0.064
aF0.02
aF0.087
aF0.012
aF0.157
aF-0.003
aF0.26
asg355
(lp1008
F0.159
aF0.18
aF0.193
aF0.05
aF0.318
aF0.004
aF0.563
asg357
(lp1009
F6.952
aF6.947
aF6.961
aF6.874
aF7.033
aF6.798
aF7.106
asg359
(lp1010
F18.957605
aF18.781959
aF18.804049
aF18.860452
aF18.610389
aF19.409219
aF19.341373
asg361
(lp1011
F0.1941508
aF0.0146432
aF0.0184401
aF0.0303176
aF0.0752725
aF0.0052786
aF0.0224912
asg363
(lp1012
F0.054
aF0.02
aF0.074
aF0.011
aF0.135
aF-0.005
aF0.225
asa.