(dp0
S'PP04_lx'
p1
(lp2
F8.543773
aF8.55359
aF8.60835
aF8.656636
aF8.657909
aF8.666754
aF8.713383
aF8.720263000000001
aF8.743167
aF8.749364
aF8.759786
aF8.824925
aF8.839068
aF8.857911
aF8.868675999999999
aF8.87077
aF8.91155
aF8.914944
aF8.915661
aF8.942110000000001
aF8.947046
aF8.951709
aF8.98378
aF8.996685000000001
aF9.001499
aF9.019932
aF9.036472999999999
aF9.039227
aF9.05898
aF9.089564999999999
aF9.105977000000001
aF9.110534
aF9.123761
aF9.127423
aF9.130244
aF9.138661
aF9.140399
aF9.144537
aF9.144544999999999
aF9.155407
aF9.160025
aF9.171052
aF9.197144999999999
aF9.197148
aF9.199633
aF9.199902999999999
aF9.204033
aF9.208109
aF9.214833
aF9.231755
aF9.241392999999999
aF9.242261
aF9.251294999999999
aF9.251974
aF9.255252
aF9.269241000000001
aF9.277011
aF9.277389
aF9.284649
aF9.288248
aF9.289038
aF9.30167
aF9.302206
aF9.303276
aF9.306894999999999
aF9.307668
aF9.310158
aF9.314781
aF9.319064
aF9.31957
aF9.323319999999999
aF9.331089
aF9.335467999999999
aF9.336223
aF9.341656
aF9.34264
aF9.343844
aF9.343886999999999
aF9.348455
aF9.354339999999999
aF9.355944000000001
aF9.358827999999999
aF9.360598
aF9.360854
aF9.365914
aF9.37244
aF9.372835
aF9.380309
aF9.381833
aF9.382081
aF9.402031
aF9.404538
aF9.405676
aF9.406445
aF9.407063
aF9.408799
aF9.411594000000001
aF9.420703
aF9.424083
aF9.427359
aF9.429837
aF9.432437
aF9.435919
aF9.436010000000001
aF9.440536
aF9.442117
aF9.447835000000001
aF9.449098
aF9.454728
aF9.455630000000001
aF9.456849
aF9.461902
aF9.465189
aF9.468856
aF9.469254
aF9.472873
aF9.473328
aF9.476327000000001
aF9.481212
aF9.481814
aF9.483081
aF9.488164999999999
aF9.493293
aF9.493971
aF9.498659
aF9.499315
aF9.507278
aF9.513819999999999
aF9.514061
aF9.519936999999999
aF9.520103
aF9.522475
aF9.533294999999999
aF9.536004
aF9.536184
aF9.547966
aF9.558752
aF9.561474
aF9.563437
aF9.564442
aF9.56756
aF9.573661999999999
aF9.574739
aF9.574743
aF9.577347
aF9.578797
aF9.584168
aF9.584435000000001
aF9.586808999999999
aF9.588816
aF9.590709
aF9.591626
aF9.593278
aF9.595689
aF9.597157000000001
aF9.597836000000001
aF9.600775
aF9.601294000000001
aF9.601934
aF9.609138
aF9.610059
aF9.612406
aF9.61481
aF9.615555
aF9.615949
aF9.618153
aF9.622189
aF9.622511
aF9.624323
aF9.624547
aF9.625246
aF9.629633
aF9.630189
aF9.630327000000001
aF9.630352
aF9.631324000000001
aF9.632574
aF9.632722
aF9.634561999999999
aF9.634812
aF9.636417999999999
aF9.6392
aF9.640495
aF9.641445
aF9.645622
aF9.646589
aF9.652009
aF9.653855
aF9.653985
aF9.654093
aF9.654366
aF9.654933999999999
aF9.655108
aF9.65513
aF9.65552
aF9.656271
aF9.656496
aF9.66437
aF9.666561999999999
aF9.667953
aF9.676988
aF9.676994
aF9.677539999999999
aF9.677810000000001
aF9.678549
aF9.679568
aF9.681479
aF9.683272
aF9.688665
aF9.68934
aF9.691339
aF9.691806
aF9.694407
aF9.694799
aF9.701413
aF9.701713
aF9.702237
aF9.704857
aF9.705343
aF9.707510000000001
aF9.708244
aF9.711777
aF9.712141
aF9.714175
aF9.716332000000001
aF9.718274000000001
aF9.719296
aF9.721498
aF9.721967999999999
aF9.722174
aF9.723111
aF9.724752
aF9.727306
aF9.728585
aF9.730661
aF9.731302000000001
aF9.738118
aF9.738222
aF9.741549000000001
aF9.747166
aF9.749811
aF9.751711
aF9.753910000000001
aF9.756895
aF9.757000999999999
aF9.759229
aF9.760034
aF9.762701
aF9.766529
aF9.768319
aF9.772892
aF9.772908000000001
aF9.776153
aF9.778279
aF9.780046
aF9.780444000000001
aF9.780550999999999
aF9.788387
aF9.789442
aF9.790277
aF9.791419
aF9.792207000000001
aF9.793465
aF9.795871
aF9.796363000000001
aF9.79872
aF9.800272999999999
aF9.800489
aF9.800978
aF9.803207
aF9.803922
aF9.806822
aF9.807315
aF9.809461
aF9.809726
aF9.812091
aF9.812355
aF9.81279
aF9.812835
aF9.812955
aF9.813827999999999
aF9.81398
aF9.814463
aF9.817143
aF9.833724
aF9.833732000000001
aF9.833941000000001
aF9.835287
aF9.835764999999999
aF9.838099
aF9.840172
aF9.841747999999999
aF9.845965
aF9.849679
aF9.849746000000001
aF9.852466
aF9.858136
aF9.858863000000001
aF9.862836
aF9.869197
aF9.870519
aF9.872968
aF9.874715
aF9.877438
aF9.878814
aF9.880958
aF9.883293
aF9.884404
aF9.885626
aF9.888303
aF9.891038
aF9.894178
aF9.895116
aF9.896376
aF9.899589
aF9.901745
aF9.906428
aF9.910909
aF9.910965
aF9.911141
aF9.911292999999999
aF9.912984
aF9.915756
aF9.917684
aF9.919918
aF9.921547
aF9.922765
aF9.925808
aF9.92735
aF9.929853
aF9.930558999999999
aF9.931325
aF9.935239
aF9.938071
aF9.940675
aF9.945843
aF9.946378999999999
aF9.951952
aF9.953284
aF9.953353
aF9.954782000000002
aF9.954830000000001
aF9.955036
aF9.956594
aF9.957329
aF9.957765
aF9.958242
aF9.961549
aF9.962603
aF9.963989
aF9.967136
aF9.968959
aF9.972878
aF9.977528999999999
aF9.979503999999999
aF9.991752
aF9.997072
aF9.998555999999999
aF9.998591000000001
aF9.999773
aF10.00047
aF10.01243
aF10.013160000000001
aF10.014289999999999
aF10.01791
aF10.022969999999999
aF10.02743
aF10.02771
aF10.02833
aF10.03233
aF10.03353
aF10.03466
aF10.0356
aF10.039010000000001
aF10.03921
aF10.03985
aF10.04043
aF10.04575
aF10.045869999999999
aF10.04833
aF10.04998
aF10.05112
aF10.05241
aF10.05981
aF10.06195
aF10.06212
aF10.064919999999999
aF10.06517
aF10.067089999999999
aF10.0716
aF10.07373
aF10.07662
aF10.08113
aF10.08469
aF10.08561
aF10.08784
aF10.09106
aF10.097719999999999
aF10.09853
aF10.10153
aF10.10235
aF10.10575
aF10.11302
aF10.11792
aF10.11849
aF10.12063
aF10.12756
aF10.13166
aF10.13251
aF10.13866
aF10.138689999999999
aF10.14143
aF10.14369
aF10.14783
aF10.15013
aF10.15221
aF10.15346
aF10.15365
aF10.15552
aF10.15753
aF10.16729
aF10.17109
aF10.17422
aF10.17762
aF10.18057
aF10.18411
aF10.19008
aF10.19154
aF10.197569999999999
aF10.19779
aF10.19847
aF10.199860000000001
aF10.207189999999999
aF10.219660000000001
aF10.22963
aF10.233460000000001
aF10.23648
aF10.23771
aF10.24258
aF10.248289999999999
aF10.258189999999999
aF10.25987
aF10.26261
aF10.262939999999999
aF10.265139999999999
aF10.267000000000001
aF10.26736
aF10.27009
aF10.27321
aF10.28272
aF10.2835
aF10.286710000000001
aF10.28773
aF10.29322
aF10.294960000000001
aF10.29551
aF10.29681
aF10.29872
aF10.30609
aF10.31224
aF10.32244
aF10.327910000000001
aF10.32872
aF10.33225
aF10.3341
aF10.334810000000001
aF10.34385
aF10.34623
aF10.34826
aF10.3497
aF10.35632
aF10.35764
aF10.35874
aF10.38198
aF10.38451
aF10.39033
aF10.39517
aF10.40449
aF10.42645
aF10.437000000000001
aF10.44195
aF10.45701
aF10.465810000000001
aF10.47366
aF10.47419
aF10.4911
aF10.494019999999999
aF10.49586
aF10.534
aF10.54066
aF10.5412
aF10.542589999999999
aF10.54871
aF10.54922
aF10.56038
aF10.582510000000001
aF10.622110000000001
aF10.634960000000001
aF10.697280000000001
aF10.853069999999999
asS'PP04_ly'
p3
(lp4
F8.03467251557303
aF8.038601447074946
aF8.060137081692412
aF8.07866023098967
aF8.079143409757393
aF8.082493843429209
aF8.09997536092093
aF8.102531034520382
aF8.110999586904423
aF8.113280944570413
aF8.11710865798548
aF8.140801729270422
aF8.145899087742333
aF8.152667288964857
aF8.156522644310785
aF8.157271658949131
aF8.171801084301991
aF8.173005577295982
aF8.17325994216732
aF8.182621368818337
aF8.184363823366207
aF8.186008594728978
aF8.197286787247346
aF8.201808297907338
aF8.203492523378715
aF8.20992913723562
aF8.215688277874754
aF8.216645588802253
aF8.223498648450214
aF8.234062789155795
aF8.23970715017121
aF8.241271259908919
aF8.245803337763661
aF8.247055982593885
aF8.248020321252804
aF8.250894323915952
aF8.25148714819938
aF8.252897739378074
aF8.252900465297849
aF8.25659732017976
aF8.258166436690061
aF8.261906793690622
aF8.270720226318202
aF8.270721236519265
aF8.271557770116392
aF8.2716486308086
aF8.273037718976504
aF8.274407265935201
aF8.276663517653871
aF8.28232464711441
aF8.28553773878137
aF8.285826701313688
aF8.288830098320584
aF8.289055531974471
aF8.29014325268416
aF8.294773760156637
aF8.29733758164613
aF8.297462157319666
aF8.299852053888394
aF8.301034843571271
aF8.301294297383048
aF8.305434261904454
aF8.305609563718155
aF8.305959423411968
aF8.307141843506118
aF8.307394223514887
aF8.308206763692342
aF8.309713594794612
aF8.311107554866604
aF8.311272108168156
aF8.312490754063742
aF8.315010542042195
aF8.316427861165055
aF8.316672008737063
aF8.318426997400989
aF8.318744493432902
aF8.319132823532788
aF8.319146689391392
aF8.32061848203618
aF8.322511037746327
aF8.323026164613678
aF8.323951601961527
aF8.3245190835365
aF8.324601129136138
aF8.32622120464406
aF8.328306098460258
aF8.328432124962038
aF8.330813128778868
aF8.331297784736257
aF8.331376625301571
aF8.337693414634563
aF8.33848360113147
aF8.338842019698486
aF8.3390841242092
aF8.339278633273032
aF8.339824753435797
aF8.340703186833277
aF8.343558837700073
aF8.344615631789141
aF8.345638433295921
aF8.34641112016429
aF8.347220945331047
aF8.348304030871514
aF8.348332314203109
aF8.349737570870936
aF8.350227775275679
aF8.35199776639083
aF8.352388102258612
aF8.354125318921854
aF8.354403222804686
aF8.354778607921665
aF8.35633236933709
aF8.357341110197574
aF8.35846460582432
aF8.358586426403763
aF8.359693065174435
aF8.35983206075856
aF8.360747441038653
aF8.362235610916102
aF8.362418757186612
aF8.36280403799014
aF8.364347588550052
aF8.365900517643354
aF8.366105537555926
aF8.36752120321268
aF8.367719029204448
aF8.37011504630998
aF8.372076052979262
aF8.372148165089257
aF8.373903523158438
aF8.37395303282114
aF8.37466000140985
aF8.377873344725117
aF8.378674883112827
aF8.37872809880374
aF8.382199712282263
aF8.385357495378233
aF8.386151292868085
aF8.38672296376642
aF8.387015387705809
aF8.387921525964021
aF8.38969000716878
aF8.390001472997193
aF8.390002629420225
aF8.390754863351997
aF8.391173220789408
aF8.392719661498905
aF8.392796404794554
aF8.393478205234649
aF8.394053826867166
aF8.394596097123785
aF8.394858552379025
aF8.395330994154575
aF8.396019620585273
aF8.396438398537864
aF8.396631966703271
aF8.39746885500564
aF8.397616479864277
aF8.397798455088845
aF8.399841690070643
aF8.40010222758048
aF8.400765458290849
aF8.401443749289463
aF8.40165373612682
aF8.401764748264025
aF8.40238521220139
aF8.403519087048712
aF8.40360941970104
aF8.404117391685261
aF8.40418014492192
aF8.404375908412376
aF8.405602457644084
aF8.40575765083933
aF8.405796161031935
aF8.405803137123755
aF8.406074276935499
aF8.406422703902363
aF8.40646393819472
aF8.406976236017192
aF8.407045792437588
aF8.407492341248672
aF8.408264721863517
aF8.408623758334677
aF8.408886941419551
aF8.41004207426014
aF8.410309018902124
aF8.41180191086931
aF8.41230908360611
aF8.412344775192226
aF8.41237442415874
aF8.412449360125228
aF8.412605224626446
aF8.412652959337693
aF8.41265899434204
aF8.412765963016714
aF8.412971863226003
aF8.413033529744157
aF8.415185379190127
aF8.41578226504213
aF8.416160547824795
aF8.41860832546122
aF8.418609945624054
aF8.418757349904283
aF8.418830220234618
aF8.419029594776015
aF8.419304331971901
aF8.41981900681342
aF8.420301237927129
aF8.42174781011554
aF8.42192845432748
aF8.422462889441098
aF8.422587626119721
aF8.423281550938228
aF8.423386014301977
aF8.425143853401183
aF8.42522337444658
aF8.425362227079367
aF8.42605564644588
aF8.426184118286212
aF8.426756363757944
aF8.42694997398455
aF8.427880333198921
aF8.427976040236338
aF8.428510337648909
aF8.429076007468032
aF8.429584466365924
aF8.429851733267125
aF8.430426845443435
aF8.430549467496329
aF8.430603197888498
aF8.430847481002102
aF8.431274859073449
aF8.431938892200598
aF8.432270913193605
aF8.432809096754541
aF8.432975086184541
aF8.434734733485122
aF8.43476150614239
aF8.435616757423666
aF8.437055313992438
aF8.437730372998956
aF8.43821436230225
aF8.438773543003096
aF8.439530919706087
aF8.439557779301415
aF8.440121772634699
aF8.440325283890568
aF8.440998516582809
aF8.441962105612104
aF8.442411585148044
aF8.443556694241167
aF8.443560692663487
aF8.444370452982694
aF8.444899713689566
aF8.445338839683508
aF8.445437652945403
aF8.445464212312281
aF8.447402315476117
aF8.44766220359683
aF8.447867720055747
aF8.44814854425437
aF8.448342147007484
aF8.448650934054514
aF8.449240514846736
aF8.449360916689509
aF8.449936961324582
aF8.450315823529236
aF8.450368474561122
aF8.450487631498225
aF8.451030095101784
aF8.451203862940224
aF8.451907462546812
aF8.452026883849276
aF8.452546071317377
aF8.452610110469303
aF8.453180917895644
aF8.453244556448508
aF8.453349380529545
aF8.453360221938908
aF8.453389130043199
aF8.453599337151998
aF8.453635918881677
aF8.453752126985767
aF8.454395951114329
aF8.458342312285499
aF8.458344200884166
aF8.458393535185564
aF8.458711012549717
aF8.45882365500626
aF8.459372901223109
aF8.459859655048069
aF8.460229033541399
aF8.461214521420752
aF8.462078977514878
aF8.46209454214518
aF8.462725518886852
aF8.464035161567343
aF8.464202526857651
aF8.465114928475115
aF8.466567834738193
aF8.466868565645711
aF8.46742455133599
aF8.467820276736798
aF8.468435604943132
aF8.468745859596412
aF8.469228359978196
aF8.469752567629945
aF8.470001519073891
aF8.470274994210428
aF8.470872808349158
aF8.47148175621692
aF8.472178605178783
aF8.472386300079009
aF8.472664950901045
aF8.473373731270694
aF8.473847904010666
aF8.47487385984156
aF8.475850435970848
aF8.475862608663013
aF8.47590086052552
aF8.475933889995288
aF8.476300951964477
aF8.476901110888253
aF8.477317397444704
aF8.477798582295431
aF8.478148660648959
aF8.478409975020117
aF8.479061189467846
aF8.479390286724314
aF8.479923195636271
aF8.480073220290167
aF8.48023585122709
aF8.481064501754012
aF8.481661633162437
aF8.482208874684122
aF8.483289783795902
aF8.483401496162731
aF8.484558608149536
aF8.484833976382799
aF8.484848228404891
aF8.48514311129399
aF8.485153007184492
aF8.485195470153295
aF8.485516264296523
aF8.485667382114238
aF8.485756958219573
aF8.485854900919561
aF8.486532294859268
aF8.48674759119444
aF8.487030260725932
aF8.487670207692608
aF8.488039726253977
aF8.488831134177024
aF8.489765094255315
aF8.490159955878891
aF8.49258547631968
aF8.493626488993797
aF8.49391551585773
aF8.493922325353022
aF8.49415209722604
aF8.494287411665056
aF8.496588756081069
aF8.496727960311121
aF8.496943153260274
aF8.497630176085883
aF8.498584454044824
aF8.499419719426966
aF8.499471974018146
aF8.49958760327843
aF8.500331034560535
aF8.50055319668256
aF8.50076203275257
aF8.500935483608936
aF8.501562633641694
aF8.501599315708523
aF8.501716623110914
aF8.501822833896446
aF8.50279264002175
aF8.50281442361485
aF8.503260093365697
aF8.503558061853505
aF8.503763481790191
aF8.503995487367359
aF8.505317252496745
aF8.505696588156095
aF8.505726666245721
aF8.506220882142346
aF8.506264899483108
aF8.50660235597568
aF8.507390865029993
aF8.507761229994998
aF8.508261650440266
aF8.509037753637532
aF8.50964620483094
aF8.509802844987588
aF8.510181502351733
aF8.51072569819907
aF8.511841617823336
aF8.511976447245885
aF8.512474127754722
aF8.512609697271484
aF8.513169688497861
aF8.514355545371645
aF8.51514590476051
aF8.515237376745429
aF8.51557992569968
aF8.51667972672174
aF8.517323552550613
aF8.51745638888482
aF8.518410930323338
aF8.518415558278953
aF8.51883708010337
aF8.519183022858332
aF8.519812658825673
aF8.520160168091158
aF8.520473025866524
aF8.520660395254914
aF8.520688832886519
aF8.520968119830975
aF8.521267101065856
aF8.522700895726885
aF8.523251030901099
aF8.523700737817348
aF8.524185713558886
aF8.524603518668851
aF8.525101214407979
aF8.525931439721885
aF8.526132729369127
aF8.526956775734993
aF8.526986617369875
aF8.527078755633541
aF8.527266628800307
aF8.528246918403436
aF8.529873992627214
aF8.53113766612786
aF8.53161423626198
aF8.531986523008062
aF8.532137264037672
aF8.53272905032269
aF8.533412595053564
aF8.534571132203899
aF8.534764362651782
aF8.53507740293884
aF8.535114928127268
aF8.535364122652922
aF8.53557348265777
aF8.535613863763515
aF8.535918604064502
aF8.536263662481415
aF8.537294133218387
aF8.537377220832655
aF8.537716863164585
aF8.537824012212942
aF8.538394283690533
aF8.538572750209232
aF8.538628933494051
aF8.538761293420535
aF8.538954644898052
aF8.539688217766823
aF8.540285063135236
aF8.54124397023099
aF8.541742135739813
aF8.541814943794606
aF8.542129337966218
aF8.542292213050027
aF8.542354375339368
aF8.543128962506136
aF8.543327655935173
aF8.543495395085493
aF8.543613411681834
aF8.544145547696978
aF8.544249599405743
aF8.544335785407796
aF8.546044046809948
aF8.546216873865841
aF8.546604504585869
aF8.546916245461421
aF8.547489119375246
aF8.54869370246902
aF8.549198387639748
aF8.54941831406753
aF8.550020134952515
aF8.550324215929212
aF8.55056536208858
aF8.550580611005326
aF8.550997671011746
aF8.551055900892461
aF8.551090484053761
aF8.551431353368189
aF8.551415401943737
aF8.551413100266139
aF8.551406476421763
aF8.55136528100461
aF8.551360958943112
aF8.551231790981728
aF8.550776193176802
aF8.549270806802754
aF8.548583682494462
aF8.543774975015262
aF8.519493029835006
asS'M08_y'
p5
(lp6
cnumpy.core.multiarray
scalar
p7
(cnumpy
dtype
p8
(S'f8'
p9
I0
I1
tp10
Rp11
(I3
S'<'
p12
NNNI-1
I-1
I0
tp13
bS'\x0e\xe8\xa8\x0c\xfb\xd2 @'
p14
tp15
Rp16
ag7
(g11
S"\xc8\xbc\xf0'R\xd9 @"
p17
tp18
Rp19
ag7
(g11
S'n\xc6\xd3\xf9\x97\xdf @'
p20
tp21
Rp22
ag7
(g11
S'T\xb8\x91\x80\xcc\xe5 @'
p23
tp24
Rp25
ag7
(g11
S'\xceEj\xba\xef\xeb @'
p26
tp27
Rp28
ag7
(g11
S'5"\x9d\xa5\x01\xf2 @'
p29
tp30
Rp31
ag7
(g11
S'\xda\x00j@\x02\xf8 @'
p32
tp33
Rp34
ag7
(g11
S'\x16\x95\x10\x89\xf1\xfd @'
p35
tp36
Rp37
ag7
(g11
S'>\x92\xd0}\xcf\x03!@'
p38
tp39
Rp40
ag7
(g11
S'\xa6\xab\xe9\x1c\x9c\t!@'
p41
tp42
Rp43
ag7
(g11
S'\xa3\x94\x9bdW\x0f!@'
p44
tp45
Rp46
ag7
(g11
S'\x8f\x00&S\x01\x15!@'
p47
tp48
Rp49
ag7
(g11
S'\xba\xa2\xc8\xe6\x99\x1a!@'
p50
tp51
Rp52
ag7
(g11
S'}.\xc3\x1d! !@'
p53
tp54
Rp55
ag7
(g11
S'*WU\xf6\x96%!@'
p56
tp57
Rp58
ag7
(g11
S'\x1c\xd0\xben\xfb*!@'
p59
tp60
Rp61
ag7
(g11
S'\xa3L?\x85N0!@'
p62
tp63
Rp64
ag7
(g11
S'\x18\x80\x168\x905!@'
p65
tp66
Rp67
ag7
(g11
S'\xcd\x1d\x84\x85\xc0:!@'
p68
tp69
Rp70
ag7
(g11
S'\x1d\xd9\xc7k\xdf?!@'
p71
tp72
Rp73
ag7
(g11
S'Xe!\xe9\xecD!@'
p74
tp75
Rp76
ag7
(g11
S'\xd6u\xd0\xfb\xe8I!@'
p77
tp78
Rp79
ag7
(g11
S'\xec\xbd\x14\xa2\xd3N!@'
p80
tp81
Rp82
ag7
(g11
S'\xf0\xf0-\xda\xacS!@'
p83
tp84
Rp85
ag7
(g11
S'6\xc2[\xa2tX!@'
p86
tp87
Rp88
ag7
(g11
S'\x17\xe5\xdd\xf8*]!@'
p89
tp90
Rp91
ag7
(g11
S'\xe6\x0c\xf4\xdb\xcfa!@'
p92
tp93
Rp94
ag7
(g11
S'\xf6\xec\xddIcf!@'
p95
tp96
Rp97
ag7
(g11
S'\xa08\xdb@\xe5j!@'
p98
tp99
Rp100
ag7
(g11
S':\xa3+\xbfUo!@'
p101
tp102
Rp103
ag7
(g11
S'\x18\xe0\x0e\xc3\xb4s!@'
p104
tp105
Rp106
ag7
(g11
S'\x8f\xa2\xc4J\x02x!@'
p107
tp108
Rp109
ag7
(g11
S'\xf5\x9d\x8cT>|!@'
p110
tp111
Rp112
ag7
(g11
S'\x9e\x85\xa6\xdeh\x80!@'
p113
tp114
Rp115
ag7
(g11
S'\xe4\x0cR\xe7\x81\x84!@'
p116
tp117
Rp118
ag7
(g11
S'\x17\xe7\xcel\x89\x88!@'
p119
tp120
Rp121
ag7
(g11
S'\x91\xc7\\m\x7f\x8c!@'
p122
tp123
Rp124
ag7
(g11
S'\xa3a;\xe7c\x90!@'
p125
tp126
Rp127
ag7
(g11
S'\xa7h\xaa\xd86\x94!@'
p128
tp129
Rp130
ag7
(g11
S'\xef\x8f\xe9?\xf8\x97!@'
p131
tp132
Rp133
ag7
(g11
S'\xd4\x8a8\x1b\xa8\x9b!@'
p134
tp135
Rp136
ag7
(g11
S'\xa7\x0c\xd7hF\x9f!@'
p137
tp138
Rp139
ag7
(g11
S"\xc2\xc8\x04'\xd3\xa2!@"
p140
tp141
Rp142
ag7
(g11
S'vr\x01TN\xa6!@'
p143
tp144
Rp145
ag7
(g11
S'\x1e\xbd\x0c\xee\xb7\xa9!@'
p146
tp147
Rp148
ag7
(g11
S'\n\\f\xf3\x0f\xad!@'
p149
tp150
Rp151
ag7
(g11
S'\x93\x02NbV\xb0!@'
p152
tp153
Rp154
ag7
(g11
S'\x0cd\x039\x8b\xb3!@'
p155
tp156
Rp157
ag7
(g11
S'\xce3\xc6u\xae\xb6!@'
p158
tp159
Rp160
ag7
(g11
S'+%\xd6\x16\xc0\xb9!@'
p161
tp162
Rp163
ag7
(g11
S'{\xebr\x1a\xc0\xbc!@'
p164
tp165
Rp166
ag7
(g11
S'\x10:\xdc~\xae\xbf!@'
p167
tp168
Rp169
ag7
(g11
S'D\xc4QB\x8b\xc2!@'
p170
tp171
Rp172
ag7
(g11
S'j=\x13cV\xc5!@'
p173
tp174
Rp175
ag7
(g11
S'\xd7X`\xdf\x0f\xc8!@'
p176
tp177
Rp178
ag7
(g11
S'\xe1\xc9x\xb5\xb7\xca!@'
p179
tp180
Rp181
ag7
(g11
S'\xdfC\x9c\xe3M\xcd!@'
p182
tp183
Rp184
ag7
(g11
S'$z\nh\xd2\xcf!@'
p185
tp186
Rp187
ag7
(g11
S'\x08 \x03AE\xd2!@'
p188
tp189
Rp190
ag7
(g11
S'\xdf\xe8\xc5l\xa6\xd4!@'
p191
tp192
Rp193
ag7
(g11
S'\xfe\x87\x92\xe9\xf5\xd6!@'
p194
tp195
Rp196
ag7
(g11
S'\xbb\xb0\xa8\xb53\xd9!@'
p197
tp198
Rp199
ag7
(g11
S'm\x16H\xcf_\xdb!@'
p200
tp201
Rp202
ag7
(g11
S'hl\xb04z\xdd!@'
p203
tp204
Rp205
ag7
(g11
S'\x00f!\xe4\x82\xdf!@'
p206
tp207
Rp208
ag7
(g11
S'\x8e\xb6\xda\xdby\xe1!@'
p209
tp210
Rp211
ag7
(g11
S'c\x11\x1c\x1a_\xe3!@'
p212
tp213
Rp214
ag7
(g11
S'\xda)%\x9d2\xe5!@'
p215
tp216
Rp217
ag7
(g11
S'D\xb35c\xf4\xe6!@'
p218
tp219
Rp220
ag7
(g11
S'\xf9`\x8dj\xa4\xe8!@'
p221
tp222
Rp223
ag7
(g11
S'M\xe6k\xb1B\xea!@'
p224
tp225
Rp226
ag7
(g11
S'\x96\xf6\x106\xcf\xeb!@'
p227
tp228
Rp229
ag7
(g11
S')E\xbc\xf6I\xed!@'
p230
tp231
Rp232
ag7
(g11
S'^\x85\xad\xf1\xb2\xee!@'
p233
tp234
Rp235
ag7
(g11
S'\x86j$%\n\xf0!@'
p236
tp237
Rp238
ag7
(g11
S'\xfc\xa7`\x8fO\xf1!@'
p239
tp240
Rp241
ag7
(g11
S'\x10\xf1\xa1.\x83\xf2!@'
p242
tp243
Rp244
ag7
(g11
S"\x1c\xf9'\x01\xa5\xf3!@"
p245
tp246
Rp247
ag7
(g11
S'qs2\x05\xb5\xf4!@'
p248
tp249
Rp250
ag7
(g11
S'j\x13\x019\xb3\xf5!@'
p251
tp252
Rp253
ag7
(g11
S'V\x8c\xd3\x9a\x9f\xf6!@'
p254
tp255
Rp256
ag7
(g11
S'\x90\x91\xe9(z\xf7!@'
p257
tp258
Rp259
ag7
(g11
S'k\xd6\x82\xe1B\xf8!@'
p260
tp261
Rp262
ag7
(g11
S'=\x0e\xdf\xc2\xf9\xf8!@'
p263
tp264
Rp265
ag7
(g11
S'[\xec=\xcb\x9e\xf9!@'
p266
tp267
Rp268
ag7
(g11
S'\x1e$\xdf\xf81\xfa!@'
p269
tp270
Rp271
ag7
(g11
S'\xd4h\x02J\xb3\xfa!@'
p272
tp273
Rp274
ag7
(g11
S'\xdam\xe7\xbc"\xfb!@'
p275
tp276
Rp277
ag7
(g11
S'\x7f\xe6\xcdO\x80\xfb!@'
p278
tp279
Rp280
ag7
(g11
S'\x1f\x86\xf5\x00\xcc\xfb!@'
p281
tp282
Rp283
ag7
(g11
S'\n\x00\x9e\xce\x05\xfc!@'
p284
tp285
Rp286
ag7
(g11
S'\x9a\x07\x07\xb7-\xfc!@'
p287
tp288
Rp289
ag7
(g11
S'"Pp\xb8C\xfc!@'
p290
tp291
Rp292
ag7
(g11
S'\xf8\x8c\x19\xd1G\xfc!@'
p293
tp294
Rp295
ag7
(g11
S'oqB\xff9\xfc!@'
p296
tp297
Rp298
ag7
(g11
S'\xe0\xb0*A\x1a\xfc!@'
p299
tp300
Rp301
ag7
(g11
S'\xa1\xfe\x11\x95\xe8\xfb!@'
p302
tp303
Rp304
ag7
(g11
S'\x03\x0e8\xf9\xa4\xfb!@'
p305
tp306
Rp307
ag7
(g11
S'a\x92\xdckO\xfb!@'
p308
tp309
Rp310
ag7
(g11
S'\x0c??\xeb\xe7\xfa!@'
p311
tp312
Rp313
asS'M08_x'
p314
(lp315
g7
(g11
S'G\xe5&ji\x16!@'
p316
tp317
Rp318
ag7
(g11
S'y\xd4\xa0\xd4Z"!@'
p319
tp320
Rp321
ag7
(g11
S'\xac\xc3\x1a?L.!@'
p322
tp323
Rp324
ag7
(g11
S'\xde\xb2\x94\xa9=:!@'
p325
tp326
Rp327
ag7
(g11
S'\x10\xa2\x0e\x14/F!@'
p328
tp329
Rp330
ag7
(g11
S'C\x91\x88~ R!@'
p331
tp332
Rp333
ag7
(g11
S'u\x80\x02\xe9\x11^!@'
p334
tp335
Rp336
ag7
(g11
S'\xa7o|S\x03j!@'
p337
tp338
Rp339
ag7
(g11
S'\xda^\xf6\xbd\xf4u!@'
p340
tp341
Rp342
ag7
(g11
S'\x0cNp(\xe6\x81!@'
p343
tp344
Rp345
ag7
(g11
S'>=\xea\x92\xd7\x8d!@'
p346
tp347
Rp348
ag7
(g11
S'q,d\xfd\xc8\x99!@'
p349
tp350
Rp351
ag7
(g11
S'\xa3\x1b\xdeg\xba\xa5!@'
p352
tp353
Rp354
ag7
(g11
S'\xd5\nX\xd2\xab\xb1!@'
p355
tp356
Rp357
ag7
(g11
S'\x08\xfa\xd1<\x9d\xbd!@'
p358
tp359
Rp360
ag7
(g11
S':\xe9K\xa7\x8e\xc9!@'
p361
tp362
Rp363
ag7
(g11
S'l\xd8\xc5\x11\x80\xd5!@'
p364
tp365
Rp366
ag7
(g11
S'\x9f\xc7?|q\xe1!@'
p367
tp368
Rp369
ag7
(g11
S'\xd1\xb6\xb9\xe6b\xed!@'
p370
tp371
Rp372
ag7
(g11
S'\x03\xa63QT\xf9!@'
p373
tp374
Rp375
ag7
(g11
S'6\x95\xad\xbbE\x05"@'
p376
tp377
Rp378
ag7
(g11
S'h\x84\'&7\x11"@'
p379
tp380
Rp381
ag7
(g11
S'\x9as\xa1\x90(\x1d"@'
p382
tp383
Rp384
ag7
(g11
S'\xcdb\x1b\xfb\x19)"@'
p385
tp386
Rp387
ag7
(g11
S'\xffQ\x95e\x0b5"@'
p388
tp389
Rp390
ag7
(g11
S'1A\x0f\xd0\xfc@"@'
p391
tp392
Rp393
ag7
(g11
S'd0\x89:\xeeL"@'
p394
tp395
Rp396
ag7
(g11
S'\x96\x1f\x03\xa5\xdfX"@'
p397
tp398
Rp399
ag7
(g11
S'\xc8\x0e}\x0f\xd1d"@'
p400
tp401
Rp402
ag7
(g11
S'\xfb\xfd\xf6y\xc2p"@'
p403
tp404
Rp405
ag7
(g11
S'-\xedp\xe4\xb3|"@'
p406
tp407
Rp408
ag7
(g11
S'_\xdc\xeaN\xa5\x88"@'
p409
tp410
Rp411
ag7
(g11
S'\x92\xcbd\xb9\x96\x94"@'
p412
tp413
Rp414
ag7
(g11
S'\xc4\xba\xde#\x88\xa0"@'
p415
tp416
Rp417
ag7
(g11
S'\xf6\xa9X\x8ey\xac"@'
p418
tp419
Rp420
ag7
(g11
S')\x99\xd2\xf8j\xb8"@'
p421
tp422
Rp423
ag7
(g11
S'[\x88Lc\\\xc4"@'
p424
tp425
Rp426
ag7
(g11
S'\x8dw\xc6\xcdM\xd0"@'
p427
tp428
Rp429
ag7
(g11
S'\xc0f@8?\xdc"@'
p430
tp431
Rp432
ag7
(g11
S'\xf2U\xba\xa20\xe8"@'
p433
tp434
Rp435
ag7
(g11
S'$E4\r"\xf4"@'
p436
tp437
Rp438
ag7
(g11
S'W4\xaew\x13\x00#@'
p439
tp440
Rp441
ag7
(g11
S'\x89#(\xe2\x04\x0c#@'
p442
tp443
Rp444
ag7
(g11
S'\xbb\x12\xa2L\xf6\x17#@'
p445
tp446
Rp447
ag7
(g11
S'\xee\x01\x1c\xb7\xe7##@'
p448
tp449
Rp450
ag7
(g11
S' \xf1\x95!\xd9/#@'
p451
tp452
Rp453
ag7
(g11
S'R\xe0\x0f\x8c\xca;#@'
p454
tp455
Rp456
ag7
(g11
S'\x85\xcf\x89\xf6\xbbG#@'
p457
tp458
Rp459
ag7
(g11
S'\xb7\xbe\x03a\xadS#@'
p460
tp461
Rp462
ag7
(g11
S'\xe9\xad}\xcb\x9e_#@'
p463
tp464
Rp465
ag7
(g11
S'\x1c\x9d\xf75\x90k#@'
p466
tp467
Rp468
ag7
(g11
S'N\x8cq\xa0\x81w#@'
p469
tp470
Rp471
ag7
(g11
S'\x80{\xeb\ns\x83#@'
p472
tp473
Rp474
ag7
(g11
S'\xb3jeud\x8f#@'
p475
tp476
Rp477
ag7
(g11
S'\xe5Y\xdf\xdfU\x9b#@'
p478
tp479
Rp480
ag7
(g11
S'\x17IYJG\xa7#@'
p481
tp482
Rp483
ag7
(g11
S'J8\xd3\xb48\xb3#@'
p484
tp485
Rp486
ag7
(g11
S"|'M\x1f*\xbf#@"
p487
tp488
Rp489
ag7
(g11
S'\xae\x16\xc7\x89\x1b\xcb#@'
p490
tp491
Rp492
ag7
(g11
S'\xe1\x05A\xf4\x0c\xd7#@'
p493
tp494
Rp495
ag7
(g11
S'\x13\xf5\xba^\xfe\xe2#@'
p496
tp497
Rp498
ag7
(g11
S'E\xe44\xc9\xef\xee#@'
p499
tp500
Rp501
ag7
(g11
S'x\xd3\xae3\xe1\xfa#@'
p502
tp503
Rp504
ag7
(g11
S'\xaa\xc2(\x9e\xd2\x06$@'
p505
tp506
Rp507
ag7
(g11
S'\xdc\xb1\xa2\x08\xc4\x12$@'
p508
tp509
Rp510
ag7
(g11
S'\x0f\xa1\x1cs\xb5\x1e$@'
p511
tp512
Rp513
ag7
(g11
S'A\x90\x96\xdd\xa6*$@'
p514
tp515
Rp516
ag7
(g11
S's\x7f\x10H\x986$@'
p517
tp518
Rp519
ag7
(g11
S'\xa6n\x8a\xb2\x89B$@'
p520
tp521
Rp522
ag7
(g11
S'\xd8]\x04\x1d{N$@'
p523
tp524
Rp525
ag7
(g11
S'\nM~\x87lZ$@'
p526
tp527
Rp528
ag7
(g11
S'=<\xf8\xf1]f$@'
p529
tp530
Rp531
ag7
(g11
S'o+r\\Or$@'
p532
tp533
Rp534
ag7
(g11
S'\xa1\x1a\xec\xc6@~$@'
p535
tp536
Rp537
ag7
(g11
S'\xd4\tf12\x8a$@'
p538
tp539
Rp540
ag7
(g11
S'\x06\xf9\xdf\x9b#\x96$@'
p541
tp542
Rp543
ag7
(g11
S'8\xe8Y\x06\x15\xa2$@'
p544
tp545
Rp546
ag7
(g11
S'k\xd7\xd3p\x06\xae$@'
p547
tp548
Rp549
ag7
(g11
S'\x9d\xc6M\xdb\xf7\xb9$@'
p550
tp551
Rp552
ag7
(g11
S'\xcf\xb5\xc7E\xe9\xc5$@'
p553
tp554
Rp555
ag7
(g11
S'\x02\xa5A\xb0\xda\xd1$@'
p556
tp557
Rp558
ag7
(g11
S'4\x94\xbb\x1a\xcc\xdd$@'
p559
tp560
Rp561
ag7
(g11
S'f\x835\x85\xbd\xe9$@'
p562
tp563
Rp564
ag7
(g11
S'\x99r\xaf\xef\xae\xf5$@'
p565
tp566
Rp567
ag7
(g11
S'\xcba)Z\xa0\x01%@'
p568
tp569
Rp570
ag7
(g11
S'\xfdP\xa3\xc4\x91\r%@'
p571
tp572
Rp573
ag7
(g11
S'0@\x1d/\x83\x19%@'
p574
tp575
Rp576
ag7
(g11
S'b/\x97\x99t%%@'
p577
tp578
Rp579
ag7
(g11
S'\x94\x1e\x11\x04f1%@'
p580
tp581
Rp582
ag7
(g11
S'\xc7\r\x8bnW=%@'
p583
tp584
Rp585
ag7
(g11
S'\xf9\xfc\x04\xd9HI%@'
p586
tp587
Rp588
ag7
(g11
S',\xec~C:U%@'
p589
tp590
Rp591
ag7
(g11
S'^\xdb\xf8\xad+a%@'
p592
tp593
Rp594
ag7
(g11
S'\x90\xcar\x18\x1dm%@'
p595
tp596
Rp597
ag7
(g11
S'\xc2\xb9\xec\x82\x0ey%@'
p598
tp599
Rp600
ag7
(g11
S'\xf5\xa8f\xed\xff\x84%@'
p601
tp602
Rp603
ag7
(g11
S"'\x98\xe0W\xf1\x90%@"
p604
tp605
Rp606
ag7
(g11
S'Z\x87Z\xc2\xe2\x9c%@'
p607
tp608
Rp609
ag7
(g11
S'\x8cv\xd4,\xd4\xa8%@'
p610
tp611
Rp612
ag7
(g11
S'\xbeeN\x97\xc5\xb4%@'
p613
tp614
Rp615
asS'PP04_y'
p616
(lp617
g7
(g11
S'\x16\x9b\xe9\xe2|v @'
p618
tp619
Rp620
ag7
(g11
S'\xc4\xb7\xa0|\x84z @'
p621
tp622
Rp623
ag7
(g11
S'\xd8\xe7L\x1e\x91~ @'
p624
tp625
Rp626
ag7
(g11
S'\xca\xdbsb\xa2\x82 @'
p627
tp628
Rp629
ag7
(g11
S'\x08D\x9b\xe3\xb7\x86 @'
p630
tp631
Rp632
ag7
(g11
S'\x02\xd1H<\xd1\x8a @'
p633
tp634
Rp635
ag7
(g11
S'\x1c3\x02\x07\xee\x8e @'
p636
tp637
Rp638
ag7
(g11
S'\xda\x1aM\xde\r\x93 @'
p639
tp640
Rp641
ag7
(g11
S'\x868\xaf\\0\x97 @'
p642
tp643
Rp644
ag7
(g11
S'\xac<\xae\x1cU\x9b @'
p645
tp646
Rp647
ag7
(g11
S'\xaa\xd7\xcf\xb8{\x9f @'
p648
tp649
Rp650
ag7
(g11
S'\xf6\xb9\x99\xcb\xa3\xa3 @'
p651
tp652
Rp653
ag7
(g11
S'\x06\x94\x91\xef\xcc\xa7 @'
p654
tp655
Rp656
ag7
(g11
S'&\x16=\xbf\xf6\xab @'
p657
tp658
Rp659
ag7
(g11
S'\xee\xf0!\xd5 \xb0 @'
p660
tp661
Rp662
ag7
(g11
S'\xb2\xd4\xc5\xcbJ\xb4 @'
p663
tp664
Rp665
ag7
(g11
S'\xdcq\xae=t\xb8 @'
p666
tp667
Rp668
ag7
(g11
S'\xecxa\xc5\x9c\xbc @'
p669
tp670
Rp671
ag7
(g11
S':\x9ad\xfd\xc3\xc0 @'
p672
tp673
Rp674
ag7
(g11
S'P\x86=\x80\xe9\xc4 @'
p675
tp676
Rp677
ag7
(g11
S'~\xedq\xe8\x0c\xc9 @'
p678
tp679
Rp680
ag7
(g11
S'J\x80\x87\xd0-\xcd @'
p681
tp682
Rp683
ag7
(g11
S'\x14\xef\x03\xd3K\xd1 @'
p684
tp685
Rp686
ag7
(g11
S'J\xeal\x8af\xd5 @'
p687
tp688
Rp689
ag7
(g11
S'`"H\x91}\xd9 @'
p690
tp691
Rp692
ag7
(g11
S'\xbcG\x1b\x82\x90\xdd @'
p693
tp694
Rp695
ag7
(g11
S'\xd4\nl\xf7\x9e\xe1 @'
p696
tp697
Rp698
ag7
(g11
S'\x0c\x1c\xc0\x8b\xa8\xe5 @'
p699
tp700
Rp701
ag7
(g11
S'\xda+\x9d\xd9\xac\xe9 @'
p702
tp703
Rp704
ag7
(g11
S'\xb2\xea\x88{\xab\xed @'
p705
tp706
Rp707
ag7
(g11
S'\xe4\x08\t\x0c\xa4\xf1 @'
p708
tp709
Rp710
ag7
(g11
S'\xfc6\xa3%\x96\xf5 @'
p711
tp712
Rp713
ag7
(g11
S'Z%\xddb\x81\xf9 @'
p714
tp715
Rp716
ag7
(g11
S'p\x84<^e\xfd @'
p717
tp718
Rp719
ag7
(g11
S'\xb0\x04G\xb2A\x01!@'
p720
tp721
Rp722
ag7
(g11
S'\x80V\x82\xf9\x15\x05!@'
p723
tp724
Rp725
ag7
(g11
S'P*t\xce\xe1\x08!@'
p726
tp727
Rp728
ag7
(g11
S'\x840\xa2\xcb\xa4\x0c!@'
p729
tp730
Rp731
ag7
(g11
S'\xa0\x19\x92\x8b^\x10!@'
p732
tp733
Rp734
ag7
(g11
S'\xf4\x95\xc9\xa8\x0e\x14!@'
p735
tp736
Rp737
ag7
(g11
S'\x14V\xce\xbd\xb4\x17!@'
p738
tp739
Rp740
ag7
(g11
S'H\n&eP\x1b!@'
p741
tp742
Rp743
ag7
(g11
S'\x10cV9\xe1\x1e!@'
p744
tp745
Rp746
ag7
(g11
S'\xe4\x10\xe5\xd4f"!@'
p747
tp748
Rp749
ag7
(g11
S'\x10\xc4W\xd2\xe0%!@'
p750
tp751
Rp752
ag7
(g11
S'(-4\xccN)!@'
p753
tp754
Rp755
ag7
(g11
S'\x80\xfc\xff\\\xb0,!@'
p756
tp757
Rp758
ag7
(g11
S'\x94\xe2@\x1f\x050!@'
p759
tp760
Rp761
ag7
(g11
S'\xcc\x8f|\xadL3!@'
p762
tp763
Rp764
ag7
(g11
S'\x88\xb48\xa2\x866!@'
p765
tp766
Rp767
ag7
(g11
S'T\x01\xfb\x97\xb29!@'
p768
tp769
Rp770
ag7
(g11
S't&I)\xd0<!@'
p771
tp772
Rp773
ag7
(g11
S'\x84\xd4\xa8\xf0\xde?!@'
p774
tp775
Rp776
ag7
(g11
S'\xcc\xbb\x9f\x88\xdeB!@'
p777
tp778
Rp779
ag7
(g11
S'\xd8\x8c\xb3\x8b\xceE!@'
p780
tp781
Rp782
ag7
(g11
S'\x04\xf8i\x94\xaeH!@'
p783
tp784
Rp785
ag7
(g11
S'\xb8\xadH=~K!@'
p786
tp787
Rp788
ag7
(g11
S't^\xd5 =N!@'
p789
tp790
Rp791
ag7
(g11
S'\x90\xba\x95\xd9\xeaP!@'
p792
tp793
Rp794
ag7
(g11
S'\x9cr\x0f\x02\x87S!@'
p795
tp796
Rp797
ag7
(g11
S'\xd46\xc84\x11V!@'
p798
tp799
Rp800
ag7
(g11
S'\xcc\xb7E\x0c\x89X!@'
p801
tp802
Rp803
ag7
(g11
S'\xf0\xa5\r#\xeeZ!@'
p804
tp805
Rp806
ag7
(g11
S'\x94\xb1\xa5\x13@]!@'
p807
tp808
Rp809
ag7
(g11
S'@\x8b\x93x~_!@'
p810
tp811
Rp812
ag7
(g11
S'L\xe3\\\xec\xa8a!@'
p813
tp814
Rp815
ag7
(g11
S'Dj\x87\t\xbfc!@'
p816
tp817
Rp818
ag7
(g11
S'|\xd0\x98j\xc0e!@'
p819
tp820
Rp821
ag7
(g11
S'`\xc6\x16\xaa\xacg!@'
p822
tp823
Rp824
ag7
(g11
S't\xfc\x86b\x83i!@'
p825
tp826
Rp827
ag7
(g11
S'\x00#o.Dk!@'
p828
tp829
Rp830
ag7
(g11
S'\xa0\xeaT\xa8\xeel!@'
p831
tp832
Rp833
ag7
(g11
S'\x94\x03\xbej\x82n!@'
p834
tp835
Rp836
ag7
(g11
S'p\x1e0\x10\xffo!@'
p837
tp838
Rp839
ag7
(g11
S'\x8c\xeb03dq!@'
p840
tp841
Rp842
ag7
(g11
S'h\x1bFn\xb1r!@'
p843
tp844
Rp845
ag7
(g11
S'`^\xf5[\xe6s!@'
p846
tp847
Rp848
ag7
(g11
S'\xd8d\xc4\x96\x02u!@'
p849
tp850
Rp851
ag7
(g11
S'`\xdf8\xb9\x05v!@'
p852
tp853
Rp854
ag7
(g11
S'@~\xd8]\xefv!@'
p855
tp856
Rp857
ag7
(g11
S'\x08\xf2(\x1f\xbfw!@'
p858
tp859
Rp860
ag7
(g11
S'\x14\xeb\xaf\x97tx!@'
p861
tp862
Rp863
ag7
(g11
S'\xc4\x19\xf3a\x0fy!@'
p864
tp865
Rp866
ag7
(g11
S'\xb0.x\x18\x8fy!@'
p867
tp868
Rp869
ag7
(g11
S'\x10\xda\xc4U\xf3y!@'
p870
tp871
Rp872
ag7
(g11
S't\xcc^\xb4;z!@'
p873
tp874
Rp875
ag7
(g11
S'8\xb6\xcb\xcegz!@'
p876
tp877
Rp878
ag7
(g11
S'\xecG\x91?wz!@'
p879
tp880
Rp881
ag7
(g11
S'\xd015\xa1iz!@'
p882
tp883
Rp884
ag7
(g11
S'l$=\x8e>z!@'
p885
tp886
Rp887
ag7
(g11
S',\xd0.\xa1\xf5y!@'
p888
tp889
Rp890
ag7
(g11
S'|\xe5\x8ft\x8ey!@'
p891
tp892
Rp893
ag7
(g11
S'\xc8\x14\xe6\xa2\x08y!@'
p894
tp895
Rp896
ag7
(g11
S'p\x0e\xb7\xc6cx!@'
p897
tp898
Rp899
ag7
(g11
S'\xf4\x82\x88z\x9fw!@'
p900
tp901
Rp902
ag7
(g11
S'\xcc"\xe0X\xbbv!@'
p903
tp904
Rp905
ag7
(g11
S'H\x9eC\xfc\xb6u!@'
p906
tp907
Rp908
ag7
(g11
S'\xe8\xa58\xff\x91t!@'
p909
tp910
Rp911
ag7
(g11
S'\x0c\xeaD\xfcKs!@'
p912
tp913
Rp914
ag7
(g11
S',\x1b\xee\x8d\xe4q!@'
p915
tp916
Rp917
asS'PP04_x'
p918
(lp919
g7
(g11
S'G\xe5&ji\x16!@'
p920
tp921
Rp922
ag7
(g11
S'y\xd4\xa0\xd4Z"!@'
p923
tp924
Rp925
ag7
(g11
S'\xac\xc3\x1a?L.!@'
p926
tp927
Rp928
ag7
(g11
S'\xde\xb2\x94\xa9=:!@'
p929
tp930
Rp931
ag7
(g11
S'\x10\xa2\x0e\x14/F!@'
p932
tp933
Rp934
ag7
(g11
S'C\x91\x88~ R!@'
p935
tp936
Rp937
ag7
(g11
S'u\x80\x02\xe9\x11^!@'
p938
tp939
Rp940
ag7
(g11
S'\xa7o|S\x03j!@'
p941
tp942
Rp943
ag7
(g11
S'\xda^\xf6\xbd\xf4u!@'
p944
tp945
Rp946
ag7
(g11
S'\x0cNp(\xe6\x81!@'
p947
tp948
Rp949
ag7
(g11
S'>=\xea\x92\xd7\x8d!@'
p950
tp951
Rp952
ag7
(g11
S'q,d\xfd\xc8\x99!@'
p953
tp954
Rp955
ag7
(g11
S'\xa3\x1b\xdeg\xba\xa5!@'
p956
tp957
Rp958
ag7
(g11
S'\xd5\nX\xd2\xab\xb1!@'
p959
tp960
Rp961
ag7
(g11
S'\x08\xfa\xd1<\x9d\xbd!@'
p962
tp963
Rp964
ag7
(g11
S':\xe9K\xa7\x8e\xc9!@'
p965
tp966
Rp967
ag7
(g11
S'l\xd8\xc5\x11\x80\xd5!@'
p968
tp969
Rp970
ag7
(g11
S'\x9f\xc7?|q\xe1!@'
p971
tp972
Rp973
ag7
(g11
S'\xd1\xb6\xb9\xe6b\xed!@'
p974
tp975
Rp976
ag7
(g11
S'\x03\xa63QT\xf9!@'
p977
tp978
Rp979
ag7
(g11
S'6\x95\xad\xbbE\x05"@'
p980
tp981
Rp982
ag7
(g11
S'h\x84\'&7\x11"@'
p983
tp984
Rp985
ag7
(g11
S'\x9as\xa1\x90(\x1d"@'
p986
tp987
Rp988
ag7
(g11
S'\xcdb\x1b\xfb\x19)"@'
p989
tp990
Rp991
ag7
(g11
S'\xffQ\x95e\x0b5"@'
p992
tp993
Rp994
ag7
(g11
S'1A\x0f\xd0\xfc@"@'
p995
tp996
Rp997
ag7
(g11
S'd0\x89:\xeeL"@'
p998
tp999
Rp1000
ag7
(g11
S'\x96\x1f\x03\xa5\xdfX"@'
p1001
tp1002
Rp1003
ag7
(g11
S'\xc8\x0e}\x0f\xd1d"@'
p1004
tp1005
Rp1006
ag7
(g11
S'\xfb\xfd\xf6y\xc2p"@'
p1007
tp1008
Rp1009
ag7
(g11
S'-\xedp\xe4\xb3|"@'
p1010
tp1011
Rp1012
ag7
(g11
S'_\xdc\xeaN\xa5\x88"@'
p1013
tp1014
Rp1015
ag7
(g11
S'\x92\xcbd\xb9\x96\x94"@'
p1016
tp1017
Rp1018
ag7
(g11
S'\xc4\xba\xde#\x88\xa0"@'
p1019
tp1020
Rp1021
ag7
(g11
S'\xf6\xa9X\x8ey\xac"@'
p1022
tp1023
Rp1024
ag7
(g11
S')\x99\xd2\xf8j\xb8"@'
p1025
tp1026
Rp1027
ag7
(g11
S'[\x88Lc\\\xc4"@'
p1028
tp1029
Rp1030
ag7
(g11
S'\x8dw\xc6\xcdM\xd0"@'
p1031
tp1032
Rp1033
ag7
(g11
S'\xc0f@8?\xdc"@'
p1034
tp1035
Rp1036
ag7
(g11
S'\xf2U\xba\xa20\xe8"@'
p1037
tp1038
Rp1039
ag7
(g11
S'$E4\r"\xf4"@'
p1040
tp1041
Rp1042
ag7
(g11
S'W4\xaew\x13\x00#@'
p1043
tp1044
Rp1045
ag7
(g11
S'\x89#(\xe2\x04\x0c#@'
p1046
tp1047
Rp1048
ag7
(g11
S'\xbb\x12\xa2L\xf6\x17#@'
p1049
tp1050
Rp1051
ag7
(g11
S'\xee\x01\x1c\xb7\xe7##@'
p1052
tp1053
Rp1054
ag7
(g11
S' \xf1\x95!\xd9/#@'
p1055
tp1056
Rp1057
ag7
(g11
S'R\xe0\x0f\x8c\xca;#@'
p1058
tp1059
Rp1060
ag7
(g11
S'\x85\xcf\x89\xf6\xbbG#@'
p1061
tp1062
Rp1063
ag7
(g11
S'\xb7\xbe\x03a\xadS#@'
p1064
tp1065
Rp1066
ag7
(g11
S'\xe9\xad}\xcb\x9e_#@'
p1067
tp1068
Rp1069
ag7
(g11
S'\x1c\x9d\xf75\x90k#@'
p1070
tp1071
Rp1072
ag7
(g11
S'N\x8cq\xa0\x81w#@'
p1073
tp1074
Rp1075
ag7
(g11
S'\x80{\xeb\ns\x83#@'
p1076
tp1077
Rp1078
ag7
(g11
S'\xb3jeud\x8f#@'
p1079
tp1080
Rp1081
ag7
(g11
S'\xe5Y\xdf\xdfU\x9b#@'
p1082
tp1083
Rp1084
ag7
(g11
S'\x17IYJG\xa7#@'
p1085
tp1086
Rp1087
ag7
(g11
S'J8\xd3\xb48\xb3#@'
p1088
tp1089
Rp1090
ag7
(g11
S"|'M\x1f*\xbf#@"
p1091
tp1092
Rp1093
ag7
(g11
S'\xae\x16\xc7\x89\x1b\xcb#@'
p1094
tp1095
Rp1096
ag7
(g11
S'\xe1\x05A\xf4\x0c\xd7#@'
p1097
tp1098
Rp1099
ag7
(g11
S'\x13\xf5\xba^\xfe\xe2#@'
p1100
tp1101
Rp1102
ag7
(g11
S'E\xe44\xc9\xef\xee#@'
p1103
tp1104
Rp1105
ag7
(g11
S'x\xd3\xae3\xe1\xfa#@'
p1106
tp1107
Rp1108
ag7
(g11
S'\xaa\xc2(\x9e\xd2\x06$@'
p1109
tp1110
Rp1111
ag7
(g11
S'\xdc\xb1\xa2\x08\xc4\x12$@'
p1112
tp1113
Rp1114
ag7
(g11
S'\x0f\xa1\x1cs\xb5\x1e$@'
p1115
tp1116
Rp1117
ag7
(g11
S'A\x90\x96\xdd\xa6*$@'
p1118
tp1119
Rp1120
ag7
(g11
S's\x7f\x10H\x986$@'
p1121
tp1122
Rp1123
ag7
(g11
S'\xa6n\x8a\xb2\x89B$@'
p1124
tp1125
Rp1126
ag7
(g11
S'\xd8]\x04\x1d{N$@'
p1127
tp1128
Rp1129
ag7
(g11
S'\nM~\x87lZ$@'
p1130
tp1131
Rp1132
ag7
(g11
S'=<\xf8\xf1]f$@'
p1133
tp1134
Rp1135
ag7
(g11
S'o+r\\Or$@'
p1136
tp1137
Rp1138
ag7
(g11
S'\xa1\x1a\xec\xc6@~$@'
p1139
tp1140
Rp1141
ag7
(g11
S'\xd4\tf12\x8a$@'
p1142
tp1143
Rp1144
ag7
(g11
S'\x06\xf9\xdf\x9b#\x96$@'
p1145
tp1146
Rp1147
ag7
(g11
S'8\xe8Y\x06\x15\xa2$@'
p1148
tp1149
Rp1150
ag7
(g11
S'k\xd7\xd3p\x06\xae$@'
p1151
tp1152
Rp1153
ag7
(g11
S'\x9d\xc6M\xdb\xf7\xb9$@'
p1154
tp1155
Rp1156
ag7
(g11
S'\xcf\xb5\xc7E\xe9\xc5$@'
p1157
tp1158
Rp1159
ag7
(g11
S'\x02\xa5A\xb0\xda\xd1$@'
p1160
tp1161
Rp1162
ag7
(g11
S'4\x94\xbb\x1a\xcc\xdd$@'
p1163
tp1164
Rp1165
ag7
(g11
S'f\x835\x85\xbd\xe9$@'
p1166
tp1167
Rp1168
ag7
(g11
S'\x99r\xaf\xef\xae\xf5$@'
p1169
tp1170
Rp1171
ag7
(g11
S'\xcba)Z\xa0\x01%@'
p1172
tp1173
Rp1174
ag7
(g11
S'\xfdP\xa3\xc4\x91\r%@'
p1175
tp1176
Rp1177
ag7
(g11
S'0@\x1d/\x83\x19%@'
p1178
tp1179
Rp1180
ag7
(g11
S'b/\x97\x99t%%@'
p1181
tp1182
Rp1183
ag7
(g11
S'\x94\x1e\x11\x04f1%@'
p1184
tp1185
Rp1186
ag7
(g11
S'\xc7\r\x8bnW=%@'
p1187
tp1188
Rp1189
ag7
(g11
S'\xf9\xfc\x04\xd9HI%@'
p1190
tp1191
Rp1192
ag7
(g11
S',\xec~C:U%@'
p1193
tp1194
Rp1195
ag7
(g11
S'^\xdb\xf8\xad+a%@'
p1196
tp1197
Rp1198
ag7
(g11
S'\x90\xcar\x18\x1dm%@'
p1199
tp1200
Rp1201
ag7
(g11
S'\xc2\xb9\xec\x82\x0ey%@'
p1202
tp1203
Rp1204
ag7
(g11
S'\xf5\xa8f\xed\xff\x84%@'
p1205
tp1206
Rp1207
ag7
(g11
S"'\x98\xe0W\xf1\x90%@"
p1208
tp1209
Rp1210
ag7
(g11
S'Z\x87Z\xc2\xe2\x9c%@'
p1211
tp1212
Rp1213
ag7
(g11
S'\x8cv\xd4,\xd4\xa8%@'
p1214
tp1215
Rp1216
ag7
(g11
S'\xbeeN\x97\xc5\xb4%@'
p1217
tp1218
Rp1219
asS'KD02_x'
p1220
(lp1221
g7
(g11
S'G\xe5&ji\x16!@'
p1222
tp1223
Rp1224
ag7
(g11
S'y\xd4\xa0\xd4Z"!@'
p1225
tp1226
Rp1227
ag7
(g11
S'\xac\xc3\x1a?L.!@'
p1228
tp1229
Rp1230
ag7
(g11
S'\xde\xb2\x94\xa9=:!@'
p1231
tp1232
Rp1233
ag7
(g11
S'\x10\xa2\x0e\x14/F!@'
p1234
tp1235
Rp1236
ag7
(g11
S'C\x91\x88~ R!@'
p1237
tp1238
Rp1239
ag7
(g11
S'u\x80\x02\xe9\x11^!@'
p1240
tp1241
Rp1242
ag7
(g11
S'\xa7o|S\x03j!@'
p1243
tp1244
Rp1245
ag7
(g11
S'\xda^\xf6\xbd\xf4u!@'
p1246
tp1247
Rp1248
ag7
(g11
S'\x0cNp(\xe6\x81!@'
p1249
tp1250
Rp1251
ag7
(g11
S'>=\xea\x92\xd7\x8d!@'
p1252
tp1253
Rp1254
ag7
(g11
S'q,d\xfd\xc8\x99!@'
p1255
tp1256
Rp1257
ag7
(g11
S'\xa3\x1b\xdeg\xba\xa5!@'
p1258
tp1259
Rp1260
ag7
(g11
S'\xd5\nX\xd2\xab\xb1!@'
p1261
tp1262
Rp1263
ag7
(g11
S'\x08\xfa\xd1<\x9d\xbd!@'
p1264
tp1265
Rp1266
ag7
(g11
S':\xe9K\xa7\x8e\xc9!@'
p1267
tp1268
Rp1269
ag7
(g11
S'l\xd8\xc5\x11\x80\xd5!@'
p1270
tp1271
Rp1272
ag7
(g11
S'\x9f\xc7?|q\xe1!@'
p1273
tp1274
Rp1275
ag7
(g11
S'\xd1\xb6\xb9\xe6b\xed!@'
p1276
tp1277
Rp1278
ag7
(g11
S'\x03\xa63QT\xf9!@'
p1279
tp1280
Rp1281
ag7
(g11
S'6\x95\xad\xbbE\x05"@'
p1282
tp1283
Rp1284
ag7
(g11
S'h\x84\'&7\x11"@'
p1285
tp1286
Rp1287
ag7
(g11
S'\x9as\xa1\x90(\x1d"@'
p1288
tp1289
Rp1290
ag7
(g11
S'\xcdb\x1b\xfb\x19)"@'
p1291
tp1292
Rp1293
ag7
(g11
S'\xffQ\x95e\x0b5"@'
p1294
tp1295
Rp1296
ag7
(g11
S'1A\x0f\xd0\xfc@"@'
p1297
tp1298
Rp1299
ag7
(g11
S'd0\x89:\xeeL"@'
p1300
tp1301
Rp1302
ag7
(g11
S'\x96\x1f\x03\xa5\xdfX"@'
p1303
tp1304
Rp1305
ag7
(g11
S'\xc8\x0e}\x0f\xd1d"@'
p1306
tp1307
Rp1308
ag7
(g11
S'\xfb\xfd\xf6y\xc2p"@'
p1309
tp1310
Rp1311
ag7
(g11
S'-\xedp\xe4\xb3|"@'
p1312
tp1313
Rp1314
ag7
(g11
S'_\xdc\xeaN\xa5\x88"@'
p1315
tp1316
Rp1317
ag7
(g11
S'\x92\xcbd\xb9\x96\x94"@'
p1318
tp1319
Rp1320
ag7
(g11
S'\xc4\xba\xde#\x88\xa0"@'
p1321
tp1322
Rp1323
ag7
(g11
S'\xf6\xa9X\x8ey\xac"@'
p1324
tp1325
Rp1326
ag7
(g11
S')\x99\xd2\xf8j\xb8"@'
p1327
tp1328
Rp1329
ag7
(g11
S'[\x88Lc\\\xc4"@'
p1330
tp1331
Rp1332
ag7
(g11
S'\x8dw\xc6\xcdM\xd0"@'
p1333
tp1334
Rp1335
ag7
(g11
S'\xc0f@8?\xdc"@'
p1336
tp1337
Rp1338
ag7
(g11
S'\xf2U\xba\xa20\xe8"@'
p1339
tp1340
Rp1341
ag7
(g11
S'$E4\r"\xf4"@'
p1342
tp1343
Rp1344
ag7
(g11
S'W4\xaew\x13\x00#@'
p1345
tp1346
Rp1347
ag7
(g11
S'\x89#(\xe2\x04\x0c#@'
p1348
tp1349
Rp1350
ag7
(g11
S'\xbb\x12\xa2L\xf6\x17#@'
p1351
tp1352
Rp1353
ag7
(g11
S'\xee\x01\x1c\xb7\xe7##@'
p1354
tp1355
Rp1356
ag7
(g11
S' \xf1\x95!\xd9/#@'
p1357
tp1358
Rp1359
ag7
(g11
S'R\xe0\x0f\x8c\xca;#@'
p1360
tp1361
Rp1362
ag7
(g11
S'\x85\xcf\x89\xf6\xbbG#@'
p1363
tp1364
Rp1365
ag7
(g11
S'\xb7\xbe\x03a\xadS#@'
p1366
tp1367
Rp1368
ag7
(g11
S'\xe9\xad}\xcb\x9e_#@'
p1369
tp1370
Rp1371
ag7
(g11
S'\x1c\x9d\xf75\x90k#@'
p1372
tp1373
Rp1374
ag7
(g11
S'N\x8cq\xa0\x81w#@'
p1375
tp1376
Rp1377
ag7
(g11
S'\x80{\xeb\ns\x83#@'
p1378
tp1379
Rp1380
ag7
(g11
S'\xb3jeud\x8f#@'
p1381
tp1382
Rp1383
ag7
(g11
S'\xe5Y\xdf\xdfU\x9b#@'
p1384
tp1385
Rp1386
ag7
(g11
S'\x17IYJG\xa7#@'
p1387
tp1388
Rp1389
ag7
(g11
S'J8\xd3\xb48\xb3#@'
p1390
tp1391
Rp1392
ag7
(g11
S"|'M\x1f*\xbf#@"
p1393
tp1394
Rp1395
ag7
(g11
S'\xae\x16\xc7\x89\x1b\xcb#@'
p1396
tp1397
Rp1398
ag7
(g11
S'\xe1\x05A\xf4\x0c\xd7#@'
p1399
tp1400
Rp1401
ag7
(g11
S'\x13\xf5\xba^\xfe\xe2#@'
p1402
tp1403
Rp1404
ag7
(g11
S'E\xe44\xc9\xef\xee#@'
p1405
tp1406
Rp1407
ag7
(g11
S'x\xd3\xae3\xe1\xfa#@'
p1408
tp1409
Rp1410
ag7
(g11
S'\xaa\xc2(\x9e\xd2\x06$@'
p1411
tp1412
Rp1413
ag7
(g11
S'\xdc\xb1\xa2\x08\xc4\x12$@'
p1414
tp1415
Rp1416
ag7
(g11
S'\x0f\xa1\x1cs\xb5\x1e$@'
p1417
tp1418
Rp1419
ag7
(g11
S'A\x90\x96\xdd\xa6*$@'
p1420
tp1421
Rp1422
ag7
(g11
S's\x7f\x10H\x986$@'
p1423
tp1424
Rp1425
ag7
(g11
S'\xa6n\x8a\xb2\x89B$@'
p1426
tp1427
Rp1428
ag7
(g11
S'\xd8]\x04\x1d{N$@'
p1429
tp1430
Rp1431
ag7
(g11
S'\nM~\x87lZ$@'
p1432
tp1433
Rp1434
ag7
(g11
S'=<\xf8\xf1]f$@'
p1435
tp1436
Rp1437
ag7
(g11
S'o+r\\Or$@'
p1438
tp1439
Rp1440
ag7
(g11
S'\xa1\x1a\xec\xc6@~$@'
p1441
tp1442
Rp1443
ag7
(g11
S'\xd4\tf12\x8a$@'
p1444
tp1445
Rp1446
ag7
(g11
S'\x06\xf9\xdf\x9b#\x96$@'
p1447
tp1448
Rp1449
ag7
(g11
S'8\xe8Y\x06\x15\xa2$@'
p1450
tp1451
Rp1452
ag7
(g11
S'k\xd7\xd3p\x06\xae$@'
p1453
tp1454
Rp1455
ag7
(g11
S'\x9d\xc6M\xdb\xf7\xb9$@'
p1456
tp1457
Rp1458
ag7
(g11
S'\xcf\xb5\xc7E\xe9\xc5$@'
p1459
tp1460
Rp1461
ag7
(g11
S'\x02\xa5A\xb0\xda\xd1$@'
p1462
tp1463
Rp1464
ag7
(g11
S'4\x94\xbb\x1a\xcc\xdd$@'
p1465
tp1466
Rp1467
ag7
(g11
S'f\x835\x85\xbd\xe9$@'
p1468
tp1469
Rp1470
ag7
(g11
S'\x99r\xaf\xef\xae\xf5$@'
p1471
tp1472
Rp1473
ag7
(g11
S'\xcba)Z\xa0\x01%@'
p1474
tp1475
Rp1476
ag7
(g11
S'\xfdP\xa3\xc4\x91\r%@'
p1477
tp1478
Rp1479
ag7
(g11
S'0@\x1d/\x83\x19%@'
p1480
tp1481
Rp1482
ag7
(g11
S'b/\x97\x99t%%@'
p1483
tp1484
Rp1485
ag7
(g11
S'\x94\x1e\x11\x04f1%@'
p1486
tp1487
Rp1488
ag7
(g11
S'\xc7\r\x8bnW=%@'
p1489
tp1490
Rp1491
ag7
(g11
S'\xf9\xfc\x04\xd9HI%@'
p1492
tp1493
Rp1494
ag7
(g11
S',\xec~C:U%@'
p1495
tp1496
Rp1497
ag7
(g11
S'^\xdb\xf8\xad+a%@'
p1498
tp1499
Rp1500
ag7
(g11
S'\x90\xcar\x18\x1dm%@'
p1501
tp1502
Rp1503
ag7
(g11
S'\xc2\xb9\xec\x82\x0ey%@'
p1504
tp1505
Rp1506
ag7
(g11
S'\xf5\xa8f\xed\xff\x84%@'
p1507
tp1508
Rp1509
ag7
(g11
S"'\x98\xe0W\xf1\x90%@"
p1510
tp1511
Rp1512
ag7
(g11
S'Z\x87Z\xc2\xe2\x9c%@'
p1513
tp1514
Rp1515
ag7
(g11
S'\x8cv\xd4,\xd4\xa8%@'
p1516
tp1517
Rp1518
ag7
(g11
S'\xbeeN\x97\xc5\xb4%@'
p1519
tp1520
Rp1521
asS'KD02_y'
p1522
(lp1523
g7
(g11
S'\xbd\xa9WQ\xa0\xcf @'
p1524
tp1525
Rp1526
ag7
(g11
S'/\xdf7f\xa3\xd5 @'
p1527
tp1528
Rp1529
ag7
(g11
S'$\xaf\r\xb2\x97\xdb @'
p1530
tp1531
Rp1532
ag7
(g11
S'\x13\x9bH0}\xe1 @'
p1533
tp1534
Rp1535
ag7
(g11
S'v$X\xdcS\xe7 @'
p1536
tp1537
Rp1538
ag7
(g11
S'\xc4\xcc\xab\xb1\x1b\xed @'
p1539
tp1540
Rp1541
ag7
(g11
S'v\x15\xb3\xab\xd4\xf2 @'
p1542
tp1543
Rp1544
ag7
(g11
S'\x04\x80\xdd\xc5~\xf8 @'
p1545
tp1546
Rp1547
ag7
(g11
S'\xe7\x8d\x9a\xfb\x19\xfe @'
p1548
tp1549
Rp1550
ag7
(g11
S'\x95\xc0YH\xa6\x03!@'
p1551
tp1552
Rp1553
ag7
(g11
S'\x86\x99\x8a\xa7#\t!@'
p1554
tp1555
Rp1556
ag7
(g11
S'7\x9a\x9c\x14\x92\x0e!@'
p1557
tp1558
Rp1559
ag7
(g11
S'\x1bD\xff\x8a\xf1\x13!@'
p1560
tp1561
Rp1562
ag7
(g11
S'\xac\x18"\x06B\x19!@'
p1563
tp1564
Rp1565
ag7
(g11
S'b\x99t\x81\x83\x1e!@'
p1566
tp1567
Rp1568
ag7
(g11
S'\xb6Gf\xf8\xb5#!@'
p1569
tp1570
Rp1571
ag7
(g11
S' \xa5ff\xd9(!@'
p1572
tp1573
Rp1574
ag7
(g11
S'\x153\xe5\xc6\xed-!@'
p1575
tp1576
Rp1577
ag7
(g11
S'\x12sQ\x15\xf32!@'
p1578
tp1579
Rp1580
ag7
(g11
S'\x8e\xe6\x1aM\xe97!@'
p1581
tp1582
Rp1583
ag7
(g11
S'\x00\x0f\xb1i\xd0<!@'
p1584
tp1585
Rp1586
ag7
(g11
S'\xe0m\x83f\xa8A!@'
p1587
tp1588
Rp1589
ag7
(g11
S'\xa8\x84\x01?qF!@'
p1590
tp1591
Rp1592
ag7
(g11
S'\xce\xd4\x9a\xee*K!@'
p1593
tp1594
Rp1595
ag7
(g11
S'\xcb\xdf\xbep\xd5O!@'
p1596
tp1597
Rp1598
ag7
(g11
S"\x18'\xdd\xc0pT!@"
p1599
tp1600
Rp1601
ag7
(g11
S'-,e\xda\xfcX!@'
p1602
tp1603
Rp1604
ag7
(g11
S'\x80p\xc6\xb8y]!@'
p1605
tp1606
Rp1607
ag7
(g11
S'\x8dupW\xe7a!@'
p1608
tp1609
Rp1610
ag7
(g11
S'\xc9\xbc\xd2\xb1Ef!@'
p1611
tp1612
Rp1613
ag7
(g11
S'\xad\xc7\\\xc3\x94j!@'
p1614
tp1615
Rp1616
ag7
(g11
S'\xb2\x17~\x87\xd4n!@'
p1617
tp1618
Rp1619
ag7
(g11
S'P.\xa6\xf9\x04s!@'
p1620
tp1621
Rp1622
ag7
(g11
S'\x00\x8dD\x15&w!@'
p1623
tp1624
Rp1625
ag7
(g11
S'6\xb5\xc8\xd57{!@'
p1626
tp1627
Rp1628
ag7
(g11
S'o(\xa26:\x7f!@'
p1629
tp1630
Rp1631
ag7
(g11
S'"h@3-\x83!@'
p1632
tp1633
Rp1634
ag7
(g11
S'\xc7\xf5\x12\xc7\x10\x87!@'
p1635
tp1636
Rp1637
ag7
(g11
S'\xd4R\x89\xed\xe4\x8a!@'
p1638
tp1639
Rp1640
ag7
(g11
S'\xc4\x00\x13\xa2\xa9\x8e!@'
p1641
tp1642
Rp1643
ag7
(g11
S'\x0e\x81\x1f\xe0^\x92!@'
p1644
tp1645
Rp1646
ag7
(g11
S'+U\x1e\xa3\x04\x96!@'
p1647
tp1648
Rp1649
ag7
(g11
S'\x93\xfe~\xe6\x9a\x99!@'
p1650
tp1651
Rp1652
ag7
(g11
S'\xbd\xfe\xb0\xa5!\x9d!@'
p1653
tp1654
Rp1655
ag7
(g11
S'"\xd7#\xdc\x98\xa0!@'
p1656
tp1657
Rp1658
ag7
(g11
S';\tG\x85\x00\xa4!@'
p1659
tp1660
Rp1661
ag7
(g11
S'\x7f\x16\x8a\x9cX\xa7!@'
p1662
tp1663
Rp1664
ag7
(g11
S'f\x80\\\x1d\xa1\xaa!@'
p1665
tp1666
Rp1667
ag7
(g11
S'j\xc8-\x03\xda\xad!@'
p1668
tp1669
Rp1670
ag7
(g11
S'\x02pmI\x03\xb1!@'
p1671
tp1672
Rp1673
ag7
(g11
S'\xa4\xf8\x8a\xeb\x1c\xb4!@'
p1674
tp1675
Rp1676
ag7
(g11
S'\xcd\xe3\xf5\xe4&\xb7!@'
p1677
tp1678
Rp1679
ag7
(g11
S'\xf1\xb2\x1d1!\xba!@'
p1680
tp1681
Rp1682
ag7
(g11
S'\x8a\xe7q\xcb\x0b\xbd!@'
p1683
tp1684
Rp1685
ag7
(g11
S'\x10\x03b\xaf\xe6\xbf!@'
p1686
tp1687
Rp1688
ag7
(g11
S'\xfc\x86]\xd8\xb1\xc2!@'
p1689
tp1690
Rp1691
ag7
(g11
S'\xc5\xf4\xd3Am\xc5!@'
p1692
tp1693
Rp1694
ag7
(g11
S'\xe3\xcd4\xe7\x18\xc8!@'
p1695
tp1696
Rp1697
ag7
(g11
S'\xce\x93\xef\xc3\xb4\xca!@'
p1698
tp1699
Rp1700
ag7
(g11
S'\x01\xc8s\xd3@\xcd!@'
p1701
tp1702
Rp1703
ag7
(g11
S'\xf1\xeb0\x11\xbd\xcf!@'
p1704
tp1705
Rp1706
ag7
(g11
S'\x17\x81\x96x)\xd2!@'
p1707
tp1708
Rp1709
ag7
(g11
S'\xec\x08\x14\x05\x86\xd4!@'
p1710
tp1711
Rp1712
ag7
(g11
S'\xe8\x04\x19\xb2\xd2\xd6!@'
p1713
tp1714
Rp1715
ag7
(g11
S'\x82\xf6\x14{\x0f\xd9!@'
p1716
tp1717
Rp1718
ag7
(g11
S'4_w[<\xdb!@'
p1719
tp1720
Rp1721
ag7
(g11
S't\xc0\xafNY\xdd!@'
p1722
tp1723
Rp1724
ag7
(g11
S'\xbc\x9b-Pf\xdf!@'
p1725
tp1726
Rp1727
ag7
(g11
S'\x85r`[c\xe1!@'
p1728
tp1729
Rp1730
ag7
(g11
S'D\xc6\xb7kP\xe3!@'
p1731
tp1732
Rp1733
ag7
(g11
S't\x18\xa3|-\xe5!@'
p1734
tp1735
Rp1736
ag7
(g11
S'\x8c\xea\x91\x89\xfa\xe6!@'
p1737
tp1738
Rp1739
ag7
(g11
S'\x05\xbe\xf3\x8d\xb7\xe8!@'
p1740
tp1741
Rp1742
ag7
(g11
S'V\x148\x85d\xea!@'
p1743
tp1744
Rp1745
ag7
(g11
S'\xf8n\xcej\x01\xec!@'
p1746
tp1747
Rp1748
ag7
(g11
S'bO&:\x8e\xed!@'
p1749
tp1750
Rp1751
ag7
(g11
S'\x0f7\xaf\xee\n\xef!@'
p1752
tp1753
Rp1754
ag7
(g11
S's\xa7\xd8\x83w\xf0!@'
p1755
tp1756
Rp1757
ag7
(g11
S'\n"\x12\xf5\xd3\xf1!@'
p1758
tp1759
Rp1760
ag7
(g11
S'L(\xcb= \xf3!@'
p1761
tp1762
Rp1763
ag7
(g11
S'\xae;sY\\\xf4!@'
p1764
tp1765
Rp1766
ag7
(g11
S'\xab\xddyC\x88\xf5!@'
p1767
tp1768
Rp1769
ag7
(g11
S'\xba\x8fN\xf7\xa3\xf6!@'
p1770
tp1771
Rp1772
ag7
(g11
S'U\xd3`p\xaf\xf7!@'
p1773
tp1774
Rp1775
ag7
(g11
S'\xf2) \xaa\xaa\xf8!@'
p1776
tp1777
Rp1778
ag7
(g11
S'\n\x15\xfc\x9f\x95\xf9!@'
p1779
tp1780
Rp1781
ag7
(g11
S'\x16\x16dMp\xfa!@'
p1782
tp1783
Rp1784
ag7
(g11
S'\x8a\xae\xc7\xad:\xfb!@'
p1785
tp1786
Rp1787
ag7
(g11
S'\xe4_\x96\xbc\xf4\xfb!@'
p1788
tp1789
Rp1790
ag7
(g11
S'\x9a\xab?u\x9e\xfc!@'
p1791
tp1792
Rp1793
ag7
(g11
S'#\x133\xd37\xfd!@'
p1794
tp1795
Rp1796
ag7
(g11
S'\xf9\x17\xe0\xd1\xc0\xfd!@'
p1797
tp1798
Rp1799
ag7
(g11
S'\x93;\xb6l9\xfe!@'
p1800
tp1801
Rp1802
ag7
(g11
S'j\xff$\x9f\xa1\xfe!@'
p1803
tp1804
Rp1805
ag7
(g11
S'\xf4\xe4\x9bd\xf9\xfe!@'
p1806
tp1807
Rp1808
ag7
(g11
S'\xacm\x8a\xb8@\xff!@'
p1809
tp1810
Rp1811
ag7
(g11
S'\n\x1b`\x96w\xff!@'
p1812
tp1813
Rp1814
ag7
(g11
S'\x83n\x8c\xf9\x9d\xff!@'
p1815
tp1816
Rp1817
ag7
(g11
S'\x94\xe9~\xdd\xb3\xff!@'
p1818
tp1819
Rp1820
ag7
(g11
S'\xb1\r\xa7=\xb9\xff!@'
p1821
tp1822
Rp1823
asS'M13_uy'
p1824
(lp1825
F8.345406047162708
aF8.346837245151656
aF8.355376272366419
aF8.363600614770428
aF8.365396511350609
aF8.37395868325027
aF8.375258628753022
aF8.37964738405562
aF8.38085018711412
aF8.382886969640404
aF8.39596719456879
aF8.39887606957897
aF8.40278363697963
aF8.405031125507874
aF8.405469502117848
aF8.414076205137606
aF8.414797882566361
aF8.414950435242377
aF8.421657601540097
aF8.422658566614563
aF8.429568297354608
aF8.432359167963243
aF8.433401510510237
aF8.43739798187229
aF8.440989966118241
aF8.441588418288033
aF8.445883158011078
aF8.452536564689012
aF8.456105791998292
aF8.457096451763489
aF8.459970565532698
aF8.460765868319786
aF8.461378383855607
aF8.46320514449907
aF8.463582186778781
aF8.464479649310642
aF8.46448138404239
aF8.466835455097389
aF8.467835477095567
aF8.470221183331923
aF8.475852426764101
aF8.475853072954562
aF8.476388221584779
aF8.476446353544036
aF8.477335235369456
aF8.478211890594679
aF8.479656713089275
aF8.483284897639916
aF8.485345921295277
aF8.485531334123758
aF8.487459016379033
aF8.487603747024004
aF8.48830215014847
aF8.491276648249128
aF8.492924453258045
aF8.4930045350793
aF8.494541111372351
aF8.49530176243518
aF8.495468632474152
aF8.49813201255999
aF8.498244819267379
aF8.498469960774994
aF8.499230937404835
aF8.499393376085058
aF8.49991637986442
aF8.500886396061631
aF8.501783888607228
aF8.50188984368692
aF8.502674578174906
aF8.504297463745145
aF8.505210463975386
aF8.505367749221497
aF8.50649844972365
aF8.506703023455122
aF8.506953245407114
aF8.506962180064972
aF8.507910608217301
aF8.509130339198864
aF8.509462363056528
aF8.51005888318158
aF8.510424691203124
aF8.510477580361798
aF8.511521993518688
aF8.512866226676017
aF8.512947487887113
aF8.514482862952667
aF8.514795416473742
aF8.51484626139749
aF8.51892068456069
aF8.519430451511496
aF8.519661680877745
aF8.519817873545861
aF8.519943361333205
aF8.520295696673605
aF8.52086244296977
aF8.522704969477806
aF8.523386878315751
aF8.524046872762346
aF8.52454548492193
aF8.525068072556229
aF8.525767012826044
aF8.52578526494237
aF8.526692133446629
aF8.527008487515554
aF8.528150773967488
aF8.528402685961028
aF8.52952385057521
aF8.529703205761905
aF8.529945474531749
aF8.53094825767745
aF8.531599292321374
aF8.532324389229592
aF8.532403011373399
aF8.533117226870692
aF8.533206933216976
aF8.533797708498176
aF8.534758145661398
aF8.534876343793195
aF8.535124993845159
aF8.536121147022296
aF8.537123326329585
aF8.537255633169025
aF8.538169196936238
aF8.538296856352442
aF8.53984297785627
aF8.541108302509953
aF8.541154830537678
aF8.54228737737524
aF8.54231931951795
aF8.542775426205095
aF8.54484834049264
aF8.545365352839351
aF8.545399677426259
aF8.547638645050855
aF8.549674723980237
aF8.55018646700906
aF8.550554988055767
aF8.550743488454263
aF8.55132756501626
aF8.552467341514356
aF8.552668058509441
aF8.552668803718477
aF8.553153536474507
aF8.553423105342743
aF8.554419446413723
aF8.554468886024436
aF8.554908096111836
aF8.555278878731736
aF8.555628154256546
aF8.555797192823505
aF8.556101462363358
aF8.556544929269261
aF8.55681459731651
aF8.556939238551868
aF8.557478084520794
aF8.55757312902062
aF8.557690286376214
aF8.559005527624844
aF8.55917320806496
aF8.559600028946083
aF8.560036495439286
aF8.560171608078281
aF8.560243035145954
aF8.560642227979558
aF8.561371630210893
aF8.561429733507921
aF8.561756451514453
aF8.561796811160544
aF8.561922713268894
aF8.562711446503188
aF8.562811230814821
aF8.562835991195502
aF8.562840476516147
aF8.563014802316316
aF8.56323880566668
aF8.563265314152629
aF8.56359463992189
aF8.563639351042449
aF8.563926379727251
aF8.564422783038982
aF8.564653506495569
aF8.564822621874042
aF8.565564772503304
aF8.565736253048366
aF8.566695073199071
aF8.567020734226043
aF8.56704365072862
aF8.567062687309893
aF8.567110800491633
aF8.567210871715707
aF8.567241518575218
aF8.567245393177156
aF8.567314068337488
aF8.567446253784038
aF8.567485841687748
aF8.568866884978021
aF8.569249829788511
aF8.569492494353643
aF8.571062119873417
aF8.571063158425856
aF8.571157646538262
aF8.571204355903065
aF8.571332148598628
aF8.571508234280135
aF8.57183806376
aF8.572147056151994
aF8.573073684689165
aF8.573189370514626
aF8.573531587829812
aF8.573611452644244
aF8.574055691146311
aF8.574122558047131
aF8.575247398235707
aF8.57529826775743
aF8.575387088220559
aF8.575830585930088
aF8.575912742051347
aF8.576278639793342
aF8.576402418336436
aF8.576997090492934
aF8.577058253323575
aF8.577399662328963
aF8.577761041617187
aF8.578085803602274
aF8.578256485722125
aF8.578623702267185
aF8.57870198699509
aF8.578736288499798
aF8.578892229358342
aF8.579165013262612
aF8.579588751364254
aF8.579800578689458
aF8.580143872372853
aF8.580249736722626
aF8.58137152126331
aF8.581388582096197
aF8.581933478054435
aF8.582849510604401
aF8.583279147998212
aF8.583587091054408
aF8.583942781241825
aF8.584424378579195
aF8.584441454429168
aF8.58479995440546
aF8.584929288990981
aF8.585357037500016
aF8.585968992623508
aF8.586254334487045
aF8.586980947924083
aF8.586983484208451
aF8.587497010278138
aF8.587832516607515
aF8.588110802716535
aF8.588173412975197
aF8.588190240919104
aF8.58941745429384
aF8.589581899436869
aF8.58971192070272
aF8.589889557123636
aF8.590012001833278
aF8.590207262111885
aF8.590579967114843
aF8.59065606085536
aF8.59102003170544
aF8.591259333476795
aF8.59129258448895
aF8.591367831763195
aF8.591710314659457
aF8.591819994047961
aF8.592263951646174
aF8.592339281194171
aF8.59266670016951
aF8.592707076771122
aF8.593066882893156
aF8.593106987414037
aF8.59317304246808
aF8.59317987388041
aF8.59319808928854
aF8.593330531307052
aF8.593353577606349
aF8.59342678369469
aF8.596312849611985
aF8.596314034732211
aF8.596344992085049
aF8.596544177000979
aF8.59661483510629
aF8.596959261754066
aF8.597264355388628
aF8.597495787133717
aF8.598112843852123
aF8.598653635353134
aF8.598663368159913
aF8.599057801448469
aF8.599875675795971
aF8.599980116106662
aF8.600549154360642
aF8.601454132552114
aF8.601641268321673
aF8.6019870737472
aF8.60223306831571
aF8.602615349848337
aF8.602807995108217
aF8.603107450785824
aF8.603432593778582
aF8.603756424508447
aF8.604126726907646
aF8.604503638323658
aF8.604934594381547
aF8.605062964464466
aF8.60523513503598
aF8.60567278209936
aF8.605965332873733
aF8.60659766186473
aF8.607198704250946
aF8.60720619067127
aF8.607229715485593
aF8.607250027462047
aF8.607475691771441
aF8.607844396998068
aF8.608099946332905
aF8.60839513397938
aF8.608609755780233
aF8.608769883138397
aF8.609168645808529
aF8.609370007004932
aF8.609787524158902
aF8.609886881140662
aF8.610392715896854
aF8.610756785156024
aF8.611090108009979
aF8.61174754299014
aF8.61181541661176
aF8.61251763173788
aF8.61268452148574
aF8.612693156689787
aF8.612871772187567
aF8.612877764526855
aF8.612903476314694
aF8.613097652867438
aF8.613189082792708
aF8.613243265832832
aF8.613711856518695
aF8.613841847654937
aF8.614012432042363
aF8.614398263525612
aF8.614620819452938
aF8.615096894592746
aF8.615657686788005
aF8.615894435566386
aF8.617344063354132
aF8.618135435053608
aF8.618139480018202
aF8.618275928078644
aF8.619717947148985
aF8.619800046492717
aF8.619926900553745
aF8.620331387317103
aF8.62089191818418
aF8.621381267576378
aF8.621411841205832
aF8.621479477655265
aF8.621913776246021
aF8.622043367031308
aF8.62216510290268
aF8.622266151324482
aF8.622631051479065
aF8.62265237188582
aF8.622720536528593
aF8.622782230862905
aF8.623344566252559
aF8.623357176525964
aF8.623614966128144
aF8.623787102375434
aF8.623905670489378
aF8.624039482037604
aF8.624799725464213
aF8.625017236128656
aF8.625034469801296
aF8.625317359734925
aF8.625342529772485
aF8.62553535410158
aF8.625984932302783
aF8.626195618962095
aF8.626479791412997
aF8.626919362296192
aF8.627262976975354
aF8.627351292516305
aF8.627564535604487
aF8.628495187689037
aF8.628570460651387
aF8.628923348908605
aF8.629234513346145
aF8.630325610424212
aF8.630375840481312
aF8.630563723700403
aF8.631164546101354
aF8.63151452319907
aF8.631586567409682
aF8.632105070196017
aF8.632517731259327
aF8.632854768666073
aF8.633040188383415
aF8.63320674875416
aF8.633306331153568
aF8.633469600026789
aF8.633627893588683
aF8.634669557827923
aF8.634903486799644
aF8.635154815319884
aF8.635370530183486
aF8.635626500924483
aF8.636051029282475
aF8.636570907746096
aF8.636585963062595
aF8.636632419999529
aF8.636727018400792
aF8.637217748767053
aF8.638021106800862
aF8.638634745490355
aF8.638863679513179
aF8.63911329174372
aF8.639393582827582
aF8.63971440453273
aF8.640250605147573
aF8.640339069139527
aF8.640498829029532
aF8.640611805230787
aF8.640706337467961
aF8.640724529831505
aF8.64086138853188
aF8.64146921272765
aF8.641505382752403
aF8.641652559267168
aF8.64169876053145
aF8.641942747777442
aF8.642018427377769
aF8.64204218389624
aF8.642098019963843
aF8.642179251369209
aF8.642726847871048
aF8.643108161448252
aF8.643301369471896
aF8.643329310112666
aF8.643449059024357
aF8.643533849600187
aF8.643950977439923
aF8.643992813532199
aF8.644178120979387
aF8.644213691438708
aF8.644242983310274
aF8.644838233139595
aF8.644948554644381
aF8.645033550767938
aF8.645179989343738
aF8.645435692357376
aF8.645514170429964
aF8.645541123215107
aF8.64558325034373
aF8.645563803370253
aF8.645470975688339
aF8.645432022234246
aF8.644920114626693
aF8.644794902833782
aF8.644784291552215
aF8.64462962208371
aF8.644618640318987
aF8.639058978760227
aF8.629180171058966
asS'M13_ux'
p1826
(lp1827
F8.543773
aF8.55359
aF8.60835
aF8.656636
aF8.666754
aF8.713383
aF8.720263000000001
aF8.743167
aF8.749364
aF8.759786
aF8.824925
aF8.839068
aF8.857911
aF8.868675999999999
aF8.87077
aF8.91155
aF8.914944
aF8.915661
aF8.947046
aF8.951709
aF8.98378
aF8.996685000000001
aF9.001499
aF9.019932
aF9.036472999999999
aF9.039227
aF9.05898
aF9.089564999999999
aF9.105977000000001
aF9.110534
aF9.123761
aF9.127423
aF9.130244
aF9.138661
aF9.140399
aF9.144537
aF9.144544999999999
aF9.155407
aF9.160025
aF9.171052
aF9.197144999999999
aF9.197148
aF9.199633
aF9.199902999999999
aF9.204033
aF9.208109
aF9.214833
aF9.231755
aF9.241392999999999
aF9.242261
aF9.251294999999999
aF9.251974
aF9.255252
aF9.269241000000001
aF9.277011
aF9.277389
aF9.284649
aF9.288248
aF9.289038
aF9.30167
aF9.302206
aF9.303276
aF9.306894999999999
aF9.307668
aF9.310158
aF9.314781
aF9.319064
aF9.31957
aF9.323319999999999
aF9.331089
aF9.335467999999999
aF9.336223
aF9.341656
aF9.34264
aF9.343844
aF9.343886999999999
aF9.348455
aF9.354339999999999
aF9.355944000000001
aF9.358827999999999
aF9.360598
aF9.360854
aF9.365914
aF9.37244
aF9.372835
aF9.380309
aF9.381833
aF9.382081
aF9.402031
aF9.404538
aF9.405676
aF9.406445
aF9.407063
aF9.408799
aF9.411594000000001
aF9.420703
aF9.424083
aF9.427359
aF9.429837
aF9.432437
aF9.435919
aF9.436010000000001
aF9.440536
aF9.442117
aF9.447835000000001
aF9.449098
aF9.454728
aF9.455630000000001
aF9.456849
aF9.461902
aF9.465189
aF9.468856
aF9.469254
aF9.472873
aF9.473328
aF9.476327000000001
aF9.481212
aF9.481814
aF9.483081
aF9.488164999999999
aF9.493293
aF9.493971
aF9.498659
aF9.499315
aF9.507278
aF9.513819999999999
aF9.514061
aF9.519936999999999
aF9.520103
aF9.522475
aF9.533294999999999
aF9.536004
aF9.536184
aF9.547966
aF9.558752
aF9.561474
aF9.563437
aF9.564442
aF9.56756
aF9.573661999999999
aF9.574739
aF9.574743
aF9.577347
aF9.578797
aF9.584168
aF9.584435000000001
aF9.586808999999999
aF9.588816
aF9.590709
aF9.591626
aF9.593278
aF9.595689
aF9.597157000000001
aF9.597836000000001
aF9.600775
aF9.601294000000001
aF9.601934
aF9.609138
aF9.610059
aF9.612406
aF9.61481
aF9.615555
aF9.615949
aF9.618153
aF9.622189
aF9.622511
aF9.624323
aF9.624547
aF9.625246
aF9.629633
aF9.630189
aF9.630327000000001
aF9.630352
aF9.631324000000001
aF9.632574
aF9.632722
aF9.634561999999999
aF9.634812
aF9.636417999999999
aF9.6392
aF9.640495
aF9.641445
aF9.645622
aF9.646589
aF9.652009
aF9.653855
aF9.653985
aF9.654093
aF9.654366
aF9.654933999999999
aF9.655108
aF9.65513
aF9.65552
aF9.656271
aF9.656496
aF9.66437
aF9.666561999999999
aF9.667953
aF9.676988
aF9.676994
aF9.677539999999999
aF9.677810000000001
aF9.678549
aF9.679568
aF9.681479
aF9.683272
aF9.688665
aF9.68934
aF9.691339
aF9.691806
aF9.694407
aF9.694799
aF9.701413
aF9.701713
aF9.702237
aF9.704857
aF9.705343
aF9.707510000000001
aF9.708244
aF9.711777
aF9.712141
aF9.714175
aF9.716332000000001
aF9.718274000000001
aF9.719296
aF9.721498
aF9.721967999999999
aF9.722174
aF9.723111
aF9.724752
aF9.727306
aF9.728585
aF9.730661
aF9.731302000000001
aF9.738118
aF9.738222
aF9.741549000000001
aF9.747166
aF9.749811
aF9.751711
aF9.753910000000001
aF9.756895
aF9.757000999999999
aF9.759229
aF9.760034
aF9.762701
aF9.766529
aF9.768319
aF9.772892
aF9.772908000000001
aF9.776153
aF9.778279
aF9.780046
aF9.780444000000001
aF9.780550999999999
aF9.788387
aF9.789442
aF9.790277
aF9.791419
aF9.792207000000001
aF9.793465
aF9.795871
aF9.796363000000001
aF9.79872
aF9.800272999999999
aF9.800489
aF9.800978
aF9.803207
aF9.803922
aF9.806822
aF9.807315
aF9.809461
aF9.809726
aF9.812091
aF9.812355
aF9.81279
aF9.812835
aF9.812955
aF9.813827999999999
aF9.81398
aF9.814463
aF9.833724
aF9.833732000000001
aF9.833941000000001
aF9.835287
aF9.835764999999999
aF9.838099
aF9.840172
aF9.841747999999999
aF9.845965
aF9.849679
aF9.849746000000001
aF9.852466
aF9.858136
aF9.858863000000001
aF9.862836
aF9.869197
aF9.870519
aF9.872968
aF9.874715
aF9.877438
aF9.878814
aF9.880958
aF9.883293
aF9.885626
aF9.888303
aF9.891038
aF9.894178
aF9.895116
aF9.896376
aF9.899589
aF9.901745
aF9.906428
aF9.910909
aF9.910965
aF9.911141
aF9.911292999999999
aF9.912984
aF9.915756
aF9.917684
aF9.919918
aF9.921547
aF9.922765
aF9.925808
aF9.92735
aF9.930558999999999
aF9.931325
aF9.935239
aF9.938071
aF9.940675
aF9.945843
aF9.946378999999999
aF9.951952
aF9.953284
aF9.953353
aF9.954782000000002
aF9.954830000000001
aF9.955036
aF9.956594
aF9.957329
aF9.957765
aF9.961549
aF9.962603
aF9.963989
aF9.967136
aF9.968959
aF9.972878
aF9.977528999999999
aF9.979503999999999
aF9.991752
aF9.998555999999999
aF9.998591000000001
aF9.999773
aF10.01243
aF10.013160000000001
aF10.014289999999999
aF10.01791
aF10.022969999999999
aF10.02743
aF10.02771
aF10.02833
aF10.03233
aF10.03353
aF10.03466
aF10.0356
aF10.039010000000001
aF10.03921
aF10.03985
aF10.04043
aF10.04575
aF10.045869999999999
aF10.04833
aF10.04998
aF10.05112
aF10.05241
aF10.05981
aF10.06195
aF10.06212
aF10.064919999999999
aF10.06517
aF10.067089999999999
aF10.0716
aF10.07373
aF10.07662
aF10.08113
aF10.08469
aF10.08561
aF10.08784
aF10.097719999999999
aF10.09853
aF10.10235
aF10.10575
aF10.11792
aF10.11849
aF10.12063
aF10.12756
aF10.13166
aF10.13251
aF10.138689999999999
aF10.14369
aF10.14783
aF10.15013
aF10.15221
aF10.15346
aF10.15552
aF10.15753
aF10.17109
aF10.17422
aF10.17762
aF10.18057
aF10.18411
aF10.19008
aF10.197569999999999
aF10.19779
aF10.19847
aF10.199860000000001
aF10.207189999999999
aF10.219660000000001
aF10.22963
aF10.233460000000001
aF10.23771
aF10.24258
aF10.248289999999999
aF10.258189999999999
aF10.25987
aF10.262939999999999
aF10.265139999999999
aF10.267000000000001
aF10.26736
aF10.27009
aF10.28272
aF10.2835
aF10.286710000000001
aF10.28773
aF10.29322
aF10.294960000000001
aF10.29551
aF10.29681
aF10.29872
aF10.31224
aF10.32244
aF10.327910000000001
aF10.32872
aF10.33225
aF10.334810000000001
aF10.34826
aF10.3497
aF10.35632
aF10.35764
aF10.35874
aF10.38451
aF10.39033
aF10.39517
aF10.40449
aF10.42645
aF10.437000000000001
aF10.44195
aF10.465810000000001
aF10.47419
aF10.4911
aF10.49586
aF10.534
aF10.54066
aF10.5412
aF10.54871
aF10.54922
aF10.697280000000001
aF10.853069999999999
asS'M13_y'
p1828
(lp1829
g7
(g11
S'\x84\xcf\xef\x0eam @'
p1830
tp1831
Rp1832
ag7
(g11
S'\x12Y\x12(\xaeo @'
p1833
tp1834
Rp1835
ag7
(g11
S'*j\x10\xe0\x02r @'
p1836
tp1837
Rp1838
ag7
(g11
S'\xa8C\x93\xd6^t @'
p1839
tp1840
Rp1841
ag7
(g11
S'F&D\xab\xc1v @'
p1842
tp1843
Rp1844
ag7
(g11
S'\xe2R\xcc\xfd*y @'
p1845
tp1846
Rp1847
ag7
(g11
S'T\n\xd5m\x9a{ @'
p1848
tp1849
Rp1850
ag7
(g11
S'V\x8d\x07\x9b\x0f~ @'
p1851
tp1852
Rp1853
ag7
(g11
S'\xac\x1c\r%\x8a\x80 @'
p1854
tp1855
Rp1856
ag7
(g11
S'N\xf9\x8e\xab\t\x83 @'
p1857
tp1858
Rp1859
ag7
(g11
S'\xe6c6\xce\x8d\x85 @'
p1860
tp1861
Rp1862
ag7
(g11
S'R\x9d\xac,\x16\x88 @'
p1863
tp1864
Rp1865
ag7
(g11
S'Z\xe6\x9af\xa2\x8a @'
p1866
tp1867
Rp1868
ag7
(g11
S'\xcc\x7f\xaa\x1b2\x8d @'
p1869
tp1870
Rp1871
ag7
(g11
S'|\xaa\x84\xeb\xc4\x8f @'
p1872
tp1873
Rp1874
ag7
(g11
S'4\xa7\xd2uZ\x92 @'
p1875
tp1876
Rp1877
ag7
(g11
S'\xbe\xb6=Z\xf2\x94 @'
p1878
tp1879
Rp1880
ag7
(g11
S'\xf2\x19o8\x8c\x97 @'
p1881
tp1882
Rp1883
ag7
(g11
S"\xa0\x11\x10\xb0'\x9a @"
p1884
tp1885
Rp1886
ag7
(g11
S'\x8e\xde\xc9`\xc4\x9c @'
p1887
tp1888
Rp1889
ag7
(g11
S'\x84\xc1E\xeaa\x9f @'
p1890
tp1891
Rp1892
ag7
(g11
S'Z\xfb,\xec\xff\xa1 @'
p1893
tp1894
Rp1895
ag7
(g11
S'\xe0\xcc(\x06\x9e\xa4 @'
p1896
tp1897
Rp1898
ag7
(g11
S'\xdcv\xe2\xd7;\xa7 @'
p1899
tp1900
Rp1901
ag7
(g11
S'*:\x03\x01\xd9\xa9 @'
p1902
tp1903
Rp1904
ag7
(g11
S'\x8aW4!u\xac @'
p1905
tp1906
Rp1907
ag7
(g11
S'\xca\x0f\x1f\xd8\x0f\xaf @'
p1908
tp1909
Rp1910
ag7
(g11
S'\xc6\xa3l\xc5\xa8\xb1 @'
p1911
tp1912
Rp1913
ag7
(g11
S'HT\xc6\x88?\xb4 @'
p1914
tp1915
Rp1916
ag7
(g11
S'\x18b\xd5\xc1\xd3\xb6 @'
p1917
tp1918
Rp1919
ag7
(g11
S'\xf8\rC\x10e\xb9 @'
p1920
tp1921
Rp1922
ag7
(g11
S'\xce\x98\xb8\x13\xf3\xbb @'
p1923
tp1924
Rp1925
ag7
(g11
S'jC\xdfk}\xbe @'
p1926
tp1927
Rp1928
ag7
(g11
S'|N`\xb8\x03\xc1 @'
p1929
tp1930
Rp1931
ag7
(g11
S'\xea\xfa\xe4\x98\x85\xc3 @'
p1932
tp1933
Rp1934
ag7
(g11
S'\x82\x89\x16\xad\x02\xc6 @'
p1935
tp1936
Rp1937
ag7
(g11
S'\x14;\x9e\x94z\xc8 @'
p1938
tp1939
Rp1940
ag7
(g11
S'hP%\xef\xec\xca @'
p1941
tp1942
Rp1943
ag7
(g11
S'L\nU\\Y\xcd @'
p1944
tp1945
Rp1946
ag7
(g11
S'~\xa9\xd6{\xbf\xcf @'
p1947
tp1948
Rp1949
ag7
(g11
S'\xecnS\xed\x1e\xd2 @'
p1950
tp1951
Rp1952
ag7
(g11
S'T\x9btPw\xd4 @'
p1953
tp1954
Rp1955
ag7
(g11
S'xo\xe3D\xc8\xd6 @'
p1956
tp1957
Rp1958
ag7
(g11
S'H,Ij\x11\xd9 @'
p1959
tp1960
Rp1961
ag7
(g11
S'p\x12O`R\xdb @'
p1962
tp1963
Rp1964
ag7
(g11
S'\xccb\x9e\xc6\x8a\xdd @'
p1965
tp1966
Rp1967
ag7
(g11
S',^\xe0<\xba\xdf @'
p1968
tp1969
Rp1970
ag7
(g11
S'lE\xbeb\xe0\xe1 @'
p1971
tp1972
Rp1973
ag7
(g11
S'@Y\xe1\xd7\xfc\xe3 @'
p1974
tp1975
Rp1976
ag7
(g11
S'|\xda\xf2;\x0f\xe6 @'
p1977
tp1978
Rp1979
ag7
(g11
S'\xf8\t\x9c.\x17\xe8 @'
p1980
tp1981
Rp1982
ag7
(g11
S't(\x86O\x14\xea @'
p1983
tp1984
Rp1985
ag7
(g11
S'\xd4vZ>\x06\xec @'
p1986
tp1987
Rp1988
ag7
(g11
S'\xd05\xc2\x9a\xec\xed @'
p1989
tp1990
Rp1991
ag7
(g11
S'L\xa6f\x04\xc7\xef @'
p1992
tp1993
Rp1994
ag7
(g11
S'\x00\t\xf1\x1a\x95\xf1 @'
p1995
tp1996
Rp1997
ag7
(g11
S'\xc8\x9e\n~V\xf3 @'
p1998
tp1999
Rp2000
ag7
(g11
S'x\xa8\\\xcd\n\xf5 @'
p2001
tp2002
Rp2003
ag7
(g11
S'\xd0f\x90\xa8\xb1\xf6 @'
p2004
tp2005
Rp2006
ag7
(g11
S'\xa4\x1aO\xafJ\xf8 @'
p2007
tp2008
Rp2009
ag7
(g11
S'\xb4\x04B\x81\xd5\xf9 @'
p2010
tp2011
Rp2012
ag7
(g11
S'\xece\x12\xbeQ\xfb @'
p2013
tp2014
Rp2015
ag7
(g11
S'\xfc~i\x05\xbf\xfc @'
p2016
tp2017
Rp2018
ag7
(g11
S'\xd0\x90\xf0\xf6\x1c\xfe @'
p2019
tp2020
Rp2021
ag7
(g11
S' \xdcP2k\xff @'
p2022
tp2023
Rp2024
ag7
(g11
S'\xb8\xa13W\xa9\x00!@'
p2025
tp2026
Rp2027
ag7
(g11
S'\x84"B\x05\xd7\x01!@'
p2028
tp2029
Rp2030
ag7
(g11
S'0\x9f%\xdc\xf3\x02!@'
p2031
tp2032
Rp2033
ag7
(g11
S'\x9cX\x87{\xff\x03!@'
p2034
tp2035
Rp2036
ag7
(g11
S'\x90\x8f\x10\x83\xf9\x04!@'
p2037
tp2038
Rp2039
ag7
(g11
S'\xd8\x84j\x92\xe1\x05!@'
p2040
tp2041
Rp2042
ag7
(g11
S'Hy>I\xb7\x06!@'
p2043
tp2044
Rp2045
ag7
(g11
S'\xb0\xad5Gz\x07!@'
p2046
tp2047
Rp2048
ag7
(g11
S'\xd4b\xf9+*\x08!@'
p2049
tp2050
Rp2051
ag7
(g11
S'\x90\xd92\x97\xc6\x08!@'
p2052
tp2053
Rp2054
ag7
(g11
S'\xa8R\x8b(O\t!@'
p2055
tp2056
Rp2057
ag7
(g11
S'\xf8\x0e\xac\x7f\xc3\t!@'
p2058
tp2059
Rp2060
ag7
(g11
S'8O><#\n!@'
p2061
tp2062
Rp2063
ag7
(g11
S'DT\xeb\xfdm\n!@'
p2064
tp2065
Rp2066
ag7
(g11
S'\xe8^\\d\xa3\n!@'
p2067
tp2068
Rp2069
ag7
(g11
S'\xec\xaf:\x0f\xc3\n!@'
p2070
tp2071
Rp2072
ag7
(g11
S'0\x88/\x9e\xcc\n!@'
p2073
tp2074
Rp2075
ag7
(g11
S'l(\xe4\xb0\xbf\n!@'
p2076
tp2077
Rp2078
ag7
(g11
S'\x8c\xd1\x01\xe7\x9b\n!@'
p2079
tp2080
Rp2081
ag7
(g11
S'<\xc41\xe0`\n!@'
p2082
tp2083
Rp2084
ag7
(g11
S'\\A\x1d<\x0e\n!@'
p2085
tp2086
Rp2087
ag7
(g11
S'\xb8\x89m\x9a\xa3\t!@'
p2088
tp2089
Rp2090
ag7
(g11
S'$\xde\xcb\x9a \t!@'
p2091
tp2092
Rp2093
ag7
(g11
S'`\x7f\xe1\xdc\x84\x08!@'
p2094
tp2095
Rp2096
ag7
(g11
S'D\xaeW\x00\xd0\x07!@'
p2097
tp2098
Rp2099
ag7
(g11
S'\xa0\xab\xd7\xa4\x01\x07!@'
p2100
tp2101
Rp2102
ag7
(g11
S'D\xb8\nj\x19\x06!@'
p2103
tp2104
Rp2105
ag7
(g11
S'\xf4\x14\x9a\xef\x16\x05!@'
p2106
tp2107
Rp2108
ag7
(g11
S'|\x02/\xd5\xf9\x03!@'
p2109
tp2110
Rp2111
ag7
(g11
S'\xc0\xc1r\xba\xc1\x02!@'
p2112
tp2113
Rp2114
ag7
(g11
S'x\x93\x0e?n\x01!@'
p2115
tp2116
Rp2117
ag7
(g11
S'\x88\xb8\xab\x02\xff\xff @'
p2118
tp2119
Rp2120
ag7
(g11
S'\xa4q\xf3\xa4s\xfe @'
p2121
tp2122
Rp2123
ag7
(g11
S'\xa4\xff\x8e\xc5\xcb\xfc @'
p2124
tp2125
Rp2126
ag7
(g11
S"X\xa3'\x04\x07\xfb @"
p2127
tp2128
Rp2129
asS'M13_x'
p2130
(lp2131
g7
(g11
S'G\xe5&ji\x16!@'
p2132
tp2133
Rp2134
ag7
(g11
S'y\xd4\xa0\xd4Z"!@'
p2135
tp2136
Rp2137
ag7
(g11
S'\xac\xc3\x1a?L.!@'
p2138
tp2139
Rp2140
ag7
(g11
S'\xde\xb2\x94\xa9=:!@'
p2141
tp2142
Rp2143
ag7
(g11
S'\x10\xa2\x0e\x14/F!@'
p2144
tp2145
Rp2146
ag7
(g11
S'C\x91\x88~ R!@'
p2147
tp2148
Rp2149
ag7
(g11
S'u\x80\x02\xe9\x11^!@'
p2150
tp2151
Rp2152
ag7
(g11
S'\xa7o|S\x03j!@'
p2153
tp2154
Rp2155
ag7
(g11
S'\xda^\xf6\xbd\xf4u!@'
p2156
tp2157
Rp2158
ag7
(g11
S'\x0cNp(\xe6\x81!@'
p2159
tp2160
Rp2161
ag7
(g11
S'>=\xea\x92\xd7\x8d!@'
p2162
tp2163
Rp2164
ag7
(g11
S'q,d\xfd\xc8\x99!@'
p2165
tp2166
Rp2167
ag7
(g11
S'\xa3\x1b\xdeg\xba\xa5!@'
p2168
tp2169
Rp2170
ag7
(g11
S'\xd5\nX\xd2\xab\xb1!@'
p2171
tp2172
Rp2173
ag7
(g11
S'\x08\xfa\xd1<\x9d\xbd!@'
p2174
tp2175
Rp2176
ag7
(g11
S':\xe9K\xa7\x8e\xc9!@'
p2177
tp2178
Rp2179
ag7
(g11
S'l\xd8\xc5\x11\x80\xd5!@'
p2180
tp2181
Rp2182
ag7
(g11
S'\x9f\xc7?|q\xe1!@'
p2183
tp2184
Rp2185
ag7
(g11
S'\xd1\xb6\xb9\xe6b\xed!@'
p2186
tp2187
Rp2188
ag7
(g11
S'\x03\xa63QT\xf9!@'
p2189
tp2190
Rp2191
ag7
(g11
S'6\x95\xad\xbbE\x05"@'
p2192
tp2193
Rp2194
ag7
(g11
S'h\x84\'&7\x11"@'
p2195
tp2196
Rp2197
ag7
(g11
S'\x9as\xa1\x90(\x1d"@'
p2198
tp2199
Rp2200
ag7
(g11
S'\xcdb\x1b\xfb\x19)"@'
p2201
tp2202
Rp2203
ag7
(g11
S'\xffQ\x95e\x0b5"@'
p2204
tp2205
Rp2206
ag7
(g11
S'1A\x0f\xd0\xfc@"@'
p2207
tp2208
Rp2209
ag7
(g11
S'd0\x89:\xeeL"@'
p2210
tp2211
Rp2212
ag7
(g11
S'\x96\x1f\x03\xa5\xdfX"@'
p2213
tp2214
Rp2215
ag7
(g11
S'\xc8\x0e}\x0f\xd1d"@'
p2216
tp2217
Rp2218
ag7
(g11
S'\xfb\xfd\xf6y\xc2p"@'
p2219
tp2220
Rp2221
ag7
(g11
S'-\xedp\xe4\xb3|"@'
p2222
tp2223
Rp2224
ag7
(g11
S'_\xdc\xeaN\xa5\x88"@'
p2225
tp2226
Rp2227
ag7
(g11
S'\x92\xcbd\xb9\x96\x94"@'
p2228
tp2229
Rp2230
ag7
(g11
S'\xc4\xba\xde#\x88\xa0"@'
p2231
tp2232
Rp2233
ag7
(g11
S'\xf6\xa9X\x8ey\xac"@'
p2234
tp2235
Rp2236
ag7
(g11
S')\x99\xd2\xf8j\xb8"@'
p2237
tp2238
Rp2239
ag7
(g11
S'[\x88Lc\\\xc4"@'
p2240
tp2241
Rp2242
ag7
(g11
S'\x8dw\xc6\xcdM\xd0"@'
p2243
tp2244
Rp2245
ag7
(g11
S'\xc0f@8?\xdc"@'
p2246
tp2247
Rp2248
ag7
(g11
S'\xf2U\xba\xa20\xe8"@'
p2249
tp2250
Rp2251
ag7
(g11
S'$E4\r"\xf4"@'
p2252
tp2253
Rp2254
ag7
(g11
S'W4\xaew\x13\x00#@'
p2255
tp2256
Rp2257
ag7
(g11
S'\x89#(\xe2\x04\x0c#@'
p2258
tp2259
Rp2260
ag7
(g11
S'\xbb\x12\xa2L\xf6\x17#@'
p2261
tp2262
Rp2263
ag7
(g11
S'\xee\x01\x1c\xb7\xe7##@'
p2264
tp2265
Rp2266
ag7
(g11
S' \xf1\x95!\xd9/#@'
p2267
tp2268
Rp2269
ag7
(g11
S'R\xe0\x0f\x8c\xca;#@'
p2270
tp2271
Rp2272
ag7
(g11
S'\x85\xcf\x89\xf6\xbbG#@'
p2273
tp2274
Rp2275
ag7
(g11
S'\xb7\xbe\x03a\xadS#@'
p2276
tp2277
Rp2278
ag7
(g11
S'\xe9\xad}\xcb\x9e_#@'
p2279
tp2280
Rp2281
ag7
(g11
S'\x1c\x9d\xf75\x90k#@'
p2282
tp2283
Rp2284
ag7
(g11
S'N\x8cq\xa0\x81w#@'
p2285
tp2286
Rp2287
ag7
(g11
S'\x80{\xeb\ns\x83#@'
p2288
tp2289
Rp2290
ag7
(g11
S'\xb3jeud\x8f#@'
p2291
tp2292
Rp2293
ag7
(g11
S'\xe5Y\xdf\xdfU\x9b#@'
p2294
tp2295
Rp2296
ag7
(g11
S'\x17IYJG\xa7#@'
p2297
tp2298
Rp2299
ag7
(g11
S'J8\xd3\xb48\xb3#@'
p2300
tp2301
Rp2302
ag7
(g11
S"|'M\x1f*\xbf#@"
p2303
tp2304
Rp2305
ag7
(g11
S'\xae\x16\xc7\x89\x1b\xcb#@'
p2306
tp2307
Rp2308
ag7
(g11
S'\xe1\x05A\xf4\x0c\xd7#@'
p2309
tp2310
Rp2311
ag7
(g11
S'\x13\xf5\xba^\xfe\xe2#@'
p2312
tp2313
Rp2314
ag7
(g11
S'E\xe44\xc9\xef\xee#@'
p2315
tp2316
Rp2317
ag7
(g11
S'x\xd3\xae3\xe1\xfa#@'
p2318
tp2319
Rp2320
ag7
(g11
S'\xaa\xc2(\x9e\xd2\x06$@'
p2321
tp2322
Rp2323
ag7
(g11
S'\xdc\xb1\xa2\x08\xc4\x12$@'
p2324
tp2325
Rp2326
ag7
(g11
S'\x0f\xa1\x1cs\xb5\x1e$@'
p2327
tp2328
Rp2329
ag7
(g11
S'A\x90\x96\xdd\xa6*$@'
p2330
tp2331
Rp2332
ag7
(g11
S's\x7f\x10H\x986$@'
p2333
tp2334
Rp2335
ag7
(g11
S'\xa6n\x8a\xb2\x89B$@'
p2336
tp2337
Rp2338
ag7
(g11
S'\xd8]\x04\x1d{N$@'
p2339
tp2340
Rp2341
ag7
(g11
S'\nM~\x87lZ$@'
p2342
tp2343
Rp2344
ag7
(g11
S'=<\xf8\xf1]f$@'
p2345
tp2346
Rp2347
ag7
(g11
S'o+r\\Or$@'
p2348
tp2349
Rp2350
ag7
(g11
S'\xa1\x1a\xec\xc6@~$@'
p2351
tp2352
Rp2353
ag7
(g11
S'\xd4\tf12\x8a$@'
p2354
tp2355
Rp2356
ag7
(g11
S'\x06\xf9\xdf\x9b#\x96$@'
p2357
tp2358
Rp2359
ag7
(g11
S'8\xe8Y\x06\x15\xa2$@'
p2360
tp2361
Rp2362
ag7
(g11
S'k\xd7\xd3p\x06\xae$@'
p2363
tp2364
Rp2365
ag7
(g11
S'\x9d\xc6M\xdb\xf7\xb9$@'
p2366
tp2367
Rp2368
ag7
(g11
S'\xcf\xb5\xc7E\xe9\xc5$@'
p2369
tp2370
Rp2371
ag7
(g11
S'\x02\xa5A\xb0\xda\xd1$@'
p2372
tp2373
Rp2374
ag7
(g11
S'4\x94\xbb\x1a\xcc\xdd$@'
p2375
tp2376
Rp2377
ag7
(g11
S'f\x835\x85\xbd\xe9$@'
p2378
tp2379
Rp2380
ag7
(g11
S'\x99r\xaf\xef\xae\xf5$@'
p2381
tp2382
Rp2383
ag7
(g11
S'\xcba)Z\xa0\x01%@'
p2384
tp2385
Rp2386
ag7
(g11
S'\xfdP\xa3\xc4\x91\r%@'
p2387
tp2388
Rp2389
ag7
(g11
S'0@\x1d/\x83\x19%@'
p2390
tp2391
Rp2392
ag7
(g11
S'b/\x97\x99t%%@'
p2393
tp2394
Rp2395
ag7
(g11
S'\x94\x1e\x11\x04f1%@'
p2396
tp2397
Rp2398
ag7
(g11
S'\xc7\r\x8bnW=%@'
p2399
tp2400
Rp2401
ag7
(g11
S'\xf9\xfc\x04\xd9HI%@'
p2402
tp2403
Rp2404
ag7
(g11
S',\xec~C:U%@'
p2405
tp2406
Rp2407
ag7
(g11
S'^\xdb\xf8\xad+a%@'
p2408
tp2409
Rp2410
ag7
(g11
S'\x90\xcar\x18\x1dm%@'
p2411
tp2412
Rp2413
ag7
(g11
S'\xc2\xb9\xec\x82\x0ey%@'
p2414
tp2415
Rp2416
ag7
(g11
S'\xf5\xa8f\xed\xff\x84%@'
p2417
tp2418
Rp2419
ag7
(g11
S"'\x98\xe0W\xf1\x90%@"
p2420
tp2421
Rp2422
ag7
(g11
S'Z\x87Z\xc2\xe2\x9c%@'
p2423
tp2424
Rp2425
ag7
(g11
S'\x8cv\xd4,\xd4\xa8%@'
p2426
tp2427
Rp2428
ag7
(g11
S'\xbeeN\x97\xc5\xb4%@'
p2429
tp2430
Rp2431
asS'M08_uy'
p2432
(lp2433
F8.605423370432645
aF8.610023114312
aF8.635769852059216
aF8.658502695955686
aF8.65910133738653
aF8.663259026792332
aF8.685105481356667
aF8.688315464400395
aF8.69897010110008
aF8.701843710517823
aF8.706666895573116
aF8.736496151152512
aF8.742890600318054
aF8.751359059235762
aF8.756169813706295
aF8.757103228470081
aF8.775120659587836
aF8.776605969864024
aF8.776919461258933
aF8.788412175264469
aF8.790541294859674
aF8.79254803902239
aF8.806226024551426
aF8.811667543738816
aF8.813688075308116
aF8.821377277737206
aF8.82821232953896
aF8.829344306410439
aF8.837412442974122
aF8.849726380807734
aF8.856243444040084
aF8.85804166270611
aF8.863233090593024
aF8.864662989324781
aF8.865762312808531
aF8.869031007728973
aF8.869703829440306
aF8.871302822714485
aF8.871305910068937
aF8.875483507032392
aF8.877250985597366
aF8.881450537159978
aF8.89127022200291
aF8.891271341469626
aF8.892197881570489
aF8.892298461200188
aF8.89383473942133
aF8.895346847541731
aF8.897832435456053
aF8.90403887128762
aF8.907542432265195
aF8.907856846173662
aF8.911118247994612
aF8.91136256792266
aF8.912540477506537
aF8.917537622862714
aF8.920292472772525
aF8.92042611449122
aF8.922986077436923
aF8.92425033074123
aF8.92452741557236
aF8.928937155354973
aF8.929123402729408
aF8.929494991630358
aF8.930749712838754
aF8.931017298220963
aF8.931878251472043
aF8.933472684720586
aF8.934945174336134
aF8.935118839143664
aF8.93640392262672
aF8.939055295389005
aF8.94054321868212
aF8.940799281897265
aF8.942637797804165
aF8.942970007317175
aF8.943376168413243
aF8.943390667581516
aF8.944928371356578
aF8.946901872888828
aF8.947438293691258
aF8.948401195615414
aF8.94899114951831
aF8.949076412667303
aF8.950758398819875
aF8.952918440521454
aF8.953048847075696
aF8.955509142486436
aF8.956009136411074
aF8.956090446525824
aF8.96258207118082
aF8.963390958560169
aF8.96375762960555
aF8.964005227415743
aF8.964204102550335
aF8.964762256336122
aF8.965659351267012
aF8.968569786023526
aF8.969644588914688
aF8.97068366297683
aF8.971467891607139
aF8.972289121728075
aF8.973386358636148
aF8.973414994674641
aF8.974836699398839
aF8.97533214676398
aF8.977118950547219
aF8.977512549421727
aF8.979262350755054
aF8.979541975330434
aF8.979919557091344
aF8.981480856331611
aF8.98249315660924
aF8.983619387135695
aF8.983741426668972
aF8.984849361945296
aF8.984988432344338
aF8.985903816441839
aF8.987390187854494
aF8.987572958972908
aF8.987957340984174
aF8.98949580483023
aF8.991041230241107
aF8.991245081656752
aF8.992651552458547
aF8.992847937283862
aF8.995223478536444
aF8.997163604951911
aF8.997234879010996
aF8.998968311717139
aF8.999017160610874
aF8.999714441259709
aF9.002877844057434
aF9.00366542879915
aF9.003717697111933
aF9.007121898539543
aF9.01020888677944
aF9.010983487002147
aF9.011540986801101
aF9.011826050277541
aF9.012708902525205
aF9.014429866546303
aF9.014732681587697
aF9.014733805728586
aF9.01546479957495
aF9.015871132787225
aF9.01737182112443
aF9.017446240588495
aF9.018107175560806
aF9.018664873532511
aF9.019190001804992
aF9.019444071248476
aF9.01990127152328
aF9.02056734611475
aF9.020972215143045
aF9.021159304783914
aF9.021967823842573
aF9.02211038403443
aF9.022286091175156
aF9.0242570701116
aF9.02450814741891
aF9.025147045672304
aF9.025800081039309
aF9.026002173470975
aF9.026108997701957
aF9.026705871067517
aF9.027795833436315
aF9.027882623270091
aF9.028370551343563
aF9.028430814071747
aF9.028618788152194
aF9.029795839072927
aF9.029944684300355
aF9.029981616335654
aF9.029988306413046
aF9.030248300206905
aF9.030582318860452
aF9.030621841680738
aF9.031112764585302
aF9.031179402947865
aF9.031607127758116
aF9.032346581133831
aF9.032690153303122
aF9.032941936987417
aF9.034046402931438
aF9.03430149228905
aF9.035727076199187
aF9.036210995610979
aF9.036245043414336
aF9.036273326168285
aF9.036344806108854
aF9.036493468533275
aF9.036538993865472
aF9.036544749446886
aF9.03664676037382
aF9.036843093248624
aF9.03690188814133
aF9.038951740348642
aF9.039519720390912
aF9.039879546779483
aF9.042205346789979
aF9.04220688476674
aF9.04234680328503
aF9.042415967104128
aF9.042605180866428
aF9.042865869253658
aF9.043354078566638
aF9.043811338642147
aF9.045182000291545
aF9.045353059743908
aF9.045859002306708
aF9.04597705960615
aF9.04663362484839
aF9.046732434603566
aF9.048393987109316
aF9.048469101208983
aF9.048600248195994
aF9.049254985502408
aF9.04937625396419
aF9.049916275043929
aF9.050098931489618
aF9.050976294609715
aF9.051066516207669
aF9.051570075517922
aF9.05210299038505
aF9.05258182181559
aF9.05283344518568
aF9.05337473181541
aF9.053490113012808
aF9.053540667474014
aF9.053770486723854
aF9.054172463939958
aF9.054796788907996
aF9.055108845611697
aF9.055614513288454
aF9.055770435374379
aF9.057422246448594
aF9.057447362767705
aF9.058249457742212
aF9.059597539393401
aF9.060229685264831
aF9.060682729256097
aF9.061205972477858
aF9.061914360010567
aF9.061939475631425
aF9.062466745364002
aF9.062656956570827
aF9.063286008139883
aF9.064185873775633
aF9.064605433502619
aF9.065673760822776
aF9.06567748973104
aF9.06643247266214
aF9.06692571766662
aF9.067334834353327
aF9.067426879030632
aF9.067451618101307
aF9.06925576468887
aF9.06949752223876
aF9.069688673423123
aF9.06994982873537
aF9.070129844915332
aF9.070416917133826
aF9.07096488415214
aF9.07107676322777
aF9.071611917163503
aF9.071963782570311
aF9.072012675354634
aF9.072123321066115
aF9.072626935522603
aF9.072788223676298
aF9.073441118715218
aF9.073551906507502
aF9.074033467147201
aF9.074092854848343
aF9.07462210177561
aF9.074681095679171
aF9.074778264326348
aF9.074788313583879
aF9.074815109274223
aF9.075009941884746
aF9.075043845580609
aF9.075151541504889
aF9.079399689708092
aF9.079401435279163
aF9.079447033000937
aF9.079740434581797
aF9.07984452235405
aF9.080351962405315
aF9.080801537956594
aF9.08114262299935
aF9.082052289078668
aF9.082849837103968
aF9.08286419365825
aF9.083446096506385
aF9.084653266089424
aF9.084807476599781
aF9.085647930927388
aF9.086985466435905
aF9.087262196122955
aF9.087773700756243
aF9.088137681961223
aF9.088703511437341
aF9.08898874499878
aF9.089432249573173
aF9.089913976384263
aF9.09039394929079
aF9.090943041859912
aF9.09150220721966
aF9.092141900317879
aF9.092332521752368
aF9.092588238948485
aF9.093238545495849
aF9.093673488970223
aF9.094614268476114
aF9.09550939939473
aF9.095520554665754
aF9.095555609064151
aF9.095585877166275
aF9.095922224768918
aF9.09647206037298
aF9.096853366395434
aF9.097294042237163
aF9.097614599044505
aF9.097853850153683
aF9.098449982515458
aF9.098751190698444
aF9.099376139062151
aF9.099524940019192
aF9.10028299669904
aF9.10082913024273
aF9.101329543923839
aF9.102317713664675
aF9.102419823407175
aF9.10347728304133
aF9.103728887068394
aF9.103741908642432
aF9.104011322153449
aF9.104020362955554
aF9.104059156560014
aF9.104352216383724
aF9.104490261151017
aF9.104572085690425
aF9.105280254392504
aF9.105476876839319
aF9.105735014452591
aF9.106319364528835
aF9.10665674516045
aF9.107379241319363
aF9.108231746468949
aF9.108592131942542
aF9.110805471141596
aF9.112018950241097
aF9.11202516275091
aF9.112234789213192
aF9.114457775192541
aF9.114584775529654
aF9.114781104506095
aF9.115407920425666
aF9.116278632910237
aF9.117040836274825
aF9.11708852310735
aF9.11719404628553
aF9.117872551165721
aF9.11807532954875
aF9.118265952978655
aF9.118424283676285
aF9.11899681627652
aF9.119030306504442
aF9.11913740856204
aF9.119234382217261
aF9.120119978479238
aF9.120139873529949
aF9.12054693640793
aF9.120819127197164
aF9.121006792740062
aF9.121218763284192
aF9.122426765316712
aF9.12277358245027
aF9.122801084809794
aF9.123253037359177
aF9.123293296051566
aF9.123601968253974
aF9.124323445402817
aF9.124662441569264
aF9.125120604075775
aF9.125831475430374
aF9.126389065708452
aF9.126532654295108
aF9.126879835545619
aF9.12840329736806
aF9.128527131958538
aF9.129108969724435
aF9.12962382236552
aF9.131443465966312
aF9.13152780276549
aF9.13184372656855
aF9.132859110775184
aF9.13345432627362
aF9.133577211935831
aF9.134465375431585
aF9.135177159860458
aF9.135761926151822
aF9.136085001523274
aF9.136376071341827
aF9.13655048962372
aF9.136837106779407
aF9.137115779077304
aF9.13897033739311
aF9.139392139942684
aF9.139847668158122
aF9.140240665024116
aF9.140709517476482
aF9.141493443271614
aF9.142464983308898
aF9.142493318842277
aF9.142580829003656
aF9.1427593697212
aF9.143693337547258
aF9.145253209830287
aF9.146474234211917
aF9.146937160553973
aF9.147446884833595
aF9.148025855667015
aF9.148697763045002
aF9.149845099027573
aF9.150037592035034
aF9.15038770356727
aF9.150637291678168
aF9.150847458253537
aF9.150888045953403
aF9.151194890746725
aF9.152592847054416
aF9.15267802240515
aF9.153027140836265
aF9.15313760126708
aF9.15372822303459
aF9.1539140409196
aF9.153972639354338
aF9.154110883325272
aF9.154313330147247
aF9.15572387177193
aF9.156762250805272
aF9.157310093628983
aF9.157390687784106
aF9.15774032883896
aF9.157992280296165
aF9.159293965112141
aF9.159431153586285
aF9.160056495536383
aF9.160180142203005
aF9.160282917448772
aF9.16262329778858
aF9.163134365390661
aF9.163554596158095
aF9.164351761668973
aF9.166169265294071
aF9.167013207562567
aF9.167402882487577
aF9.169227159162563
aF9.169847565801447
aF9.171069386580879
aF9.17140637470245
aF9.174007021476994
aF9.174444696192303
aF9.174479990012813
aF9.174967939912772
aF9.17500088481772
aF9.184014820662693
aF9.194665596180899
asS'M08_ux'
p2434
(lp2435
F8.543773
aF8.55359
aF8.60835
aF8.656636
aF8.657909
aF8.666754
aF8.713383
aF8.720263000000001
aF8.743167
aF8.749364
aF8.759786
aF8.824925
aF8.839068
aF8.857911
aF8.868675999999999
aF8.87077
aF8.91155
aF8.914944
aF8.915661
aF8.942110000000001
aF8.947046
aF8.951709
aF8.98378
aF8.996685000000001
aF9.001499
aF9.019932
aF9.036472999999999
aF9.039227
aF9.05898
aF9.089564999999999
aF9.105977000000001
aF9.110534
aF9.123761
aF9.127423
aF9.130244
aF9.138661
aF9.140399
aF9.144537
aF9.144544999999999
aF9.155407
aF9.160025
aF9.171052
aF9.197144999999999
aF9.197148
aF9.199633
aF9.199902999999999
aF9.204033
aF9.208109
aF9.214833
aF9.231755
aF9.241392999999999
aF9.242261
aF9.251294999999999
aF9.251974
aF9.255252
aF9.269241000000001
aF9.277011
aF9.277389
aF9.284649
aF9.288248
aF9.289038
aF9.30167
aF9.302206
aF9.303276
aF9.306894999999999
aF9.307668
aF9.310158
aF9.314781
aF9.319064
aF9.31957
aF9.323319999999999
aF9.331089
aF9.335467999999999
aF9.336223
aF9.341656
aF9.34264
aF9.343844
aF9.343886999999999
aF9.348455
aF9.354339999999999
aF9.355944000000001
aF9.358827999999999
aF9.360598
aF9.360854
aF9.365914
aF9.37244
aF9.372835
aF9.380309
aF9.381833
aF9.382081
aF9.402031
aF9.404538
aF9.405676
aF9.406445
aF9.407063
aF9.408799
aF9.411594000000001
aF9.420703
aF9.424083
aF9.427359
aF9.429837
aF9.432437
aF9.435919
aF9.436010000000001
aF9.440536
aF9.442117
aF9.447835000000001
aF9.449098
aF9.454728
aF9.455630000000001
aF9.456849
aF9.461902
aF9.465189
aF9.468856
aF9.469254
aF9.472873
aF9.473328
aF9.476327000000001
aF9.481212
aF9.481814
aF9.483081
aF9.488164999999999
aF9.493293
aF9.493971
aF9.498659
aF9.499315
aF9.507278
aF9.513819999999999
aF9.514061
aF9.519936999999999
aF9.520103
aF9.522475
aF9.533294999999999
aF9.536004
aF9.536184
aF9.547966
aF9.558752
aF9.561474
aF9.563437
aF9.564442
aF9.56756
aF9.573661999999999
aF9.574739
aF9.574743
aF9.577347
aF9.578797
aF9.584168
aF9.584435000000001
aF9.586808999999999
aF9.588816
aF9.590709
aF9.591626
aF9.593278
aF9.595689
aF9.597157000000001
aF9.597836000000001
aF9.600775
aF9.601294000000001
aF9.601934
aF9.609138
aF9.610059
aF9.612406
aF9.61481
aF9.615555
aF9.615949
aF9.618153
aF9.622189
aF9.622511
aF9.624323
aF9.624547
aF9.625246
aF9.629633
aF9.630189
aF9.630327000000001
aF9.630352
aF9.631324000000001
aF9.632574
aF9.632722
aF9.634561999999999
aF9.634812
aF9.636417999999999
aF9.6392
aF9.640495
aF9.641445
aF9.645622
aF9.646589
aF9.652009
aF9.653855
aF9.653985
aF9.654093
aF9.654366
aF9.654933999999999
aF9.655108
aF9.65513
aF9.65552
aF9.656271
aF9.656496
aF9.66437
aF9.666561999999999
aF9.667953
aF9.676988
aF9.676994
aF9.677539999999999
aF9.677810000000001
aF9.678549
aF9.679568
aF9.681479
aF9.683272
aF9.688665
aF9.68934
aF9.691339
aF9.691806
aF9.694407
aF9.694799
aF9.701413
aF9.701713
aF9.702237
aF9.704857
aF9.705343
aF9.707510000000001
aF9.708244
aF9.711777
aF9.712141
aF9.714175
aF9.716332000000001
aF9.718274000000001
aF9.719296
aF9.721498
aF9.721967999999999
aF9.722174
aF9.723111
aF9.724752
aF9.727306
aF9.728585
aF9.730661
aF9.731302000000001
aF9.738118
aF9.738222
aF9.741549000000001
aF9.747166
aF9.749811
aF9.751711
aF9.753910000000001
aF9.756895
aF9.757000999999999
aF9.759229
aF9.760034
aF9.762701
aF9.766529
aF9.768319
aF9.772892
aF9.772908000000001
aF9.776153
aF9.778279
aF9.780046
aF9.780444000000001
aF9.780550999999999
aF9.788387
aF9.789442
aF9.790277
aF9.791419
aF9.792207000000001
aF9.793465
aF9.795871
aF9.796363000000001
aF9.79872
aF9.800272999999999
aF9.800489
aF9.800978
aF9.803207
aF9.803922
aF9.806822
aF9.807315
aF9.809461
aF9.809726
aF9.812091
aF9.812355
aF9.81279
aF9.812835
aF9.812955
aF9.813827999999999
aF9.81398
aF9.814463
aF9.833724
aF9.833732000000001
aF9.833941000000001
aF9.835287
aF9.835764999999999
aF9.838099
aF9.840172
aF9.841747999999999
aF9.845965
aF9.849679
aF9.849746000000001
aF9.852466
aF9.858136
aF9.858863000000001
aF9.862836
aF9.869197
aF9.870519
aF9.872968
aF9.874715
aF9.877438
aF9.878814
aF9.880958
aF9.883293
aF9.885626
aF9.888303
aF9.891038
aF9.894178
aF9.895116
aF9.896376
aF9.899589
aF9.901745
aF9.906428
aF9.910909
aF9.910965
aF9.911141
aF9.911292999999999
aF9.912984
aF9.915756
aF9.917684
aF9.919918
aF9.921547
aF9.922765
aF9.925808
aF9.92735
aF9.930558999999999
aF9.931325
aF9.935239
aF9.938071
aF9.940675
aF9.945843
aF9.946378999999999
aF9.951952
aF9.953284
aF9.953353
aF9.954782000000002
aF9.954830000000001
aF9.955036
aF9.956594
aF9.957329
aF9.957765
aF9.961549
aF9.962603
aF9.963989
aF9.967136
aF9.968959
aF9.972878
aF9.977528999999999
aF9.979503999999999
aF9.991752
aF9.998555999999999
aF9.998591000000001
aF9.999773
aF10.01243
aF10.013160000000001
aF10.014289999999999
aF10.01791
aF10.022969999999999
aF10.02743
aF10.02771
aF10.02833
aF10.03233
aF10.03353
aF10.03466
aF10.0356
aF10.039010000000001
aF10.03921
aF10.03985
aF10.04043
aF10.04575
aF10.045869999999999
aF10.04833
aF10.04998
aF10.05112
aF10.05241
aF10.05981
aF10.06195
aF10.06212
aF10.064919999999999
aF10.06517
aF10.067089999999999
aF10.0716
aF10.07373
aF10.07662
aF10.08113
aF10.08469
aF10.08561
aF10.08784
aF10.097719999999999
aF10.09853
aF10.10235
aF10.10575
aF10.11792
aF10.11849
aF10.12063
aF10.12756
aF10.13166
aF10.13251
aF10.138689999999999
aF10.14369
aF10.14783
aF10.15013
aF10.15221
aF10.15346
aF10.15552
aF10.15753
aF10.17109
aF10.17422
aF10.17762
aF10.18057
aF10.18411
aF10.19008
aF10.197569999999999
aF10.19779
aF10.19847
aF10.199860000000001
aF10.207189999999999
aF10.219660000000001
aF10.22963
aF10.233460000000001
aF10.23771
aF10.24258
aF10.248289999999999
aF10.258189999999999
aF10.25987
aF10.262939999999999
aF10.265139999999999
aF10.267000000000001
aF10.26736
aF10.27009
aF10.28272
aF10.2835
aF10.286710000000001
aF10.28773
aF10.29322
aF10.294960000000001
aF10.29551
aF10.29681
aF10.29872
aF10.31224
aF10.32244
aF10.327910000000001
aF10.32872
aF10.33225
aF10.334810000000001
aF10.34826
aF10.3497
aF10.35632
aF10.35764
aF10.35874
aF10.38451
aF10.39033
aF10.39517
aF10.40449
aF10.42645
aF10.437000000000001
aF10.44195
aF10.465810000000001
aF10.47419
aF10.4911
aF10.49586
aF10.534
aF10.54066
aF10.5412
aF10.54871
aF10.54922
aF10.697280000000001
aF10.853069999999999
asS'KD02_ly'
p2436
(lp2437
F8.200242226615105
aF8.205846168999066
aF8.236212586283335
aF8.261826538256503
aF8.26248812638408
aF8.267066305840503
aF8.290683597919442
aF8.294097680701228
aF8.30533927059778
aF8.308348809356009
aF8.31338022881435
aF8.344018787898921
aF8.350496745413935
aF8.359036264270987
aF8.363869236858967
aF8.36480555129043
aF8.382800349578234
aF8.384277911452845
aF8.38458966723335
aF8.395996814853694
aF8.398105867641794
aF8.400092639967855
aF8.413611254437612
aF8.41898036215827
aF8.420973013817969
aF8.428552252818648
aF8.435285868906842
aF8.436400831803159
aF8.444346893827573
aF8.456475863311145
aF8.462898020745303
aF8.464670618634324
aF8.469789752734547
aF8.471200222413163
aF8.472284762750549
aF8.475510338841975
aF8.476174447747406
aF8.477752968110911
aF8.477756016256953
aF8.481881757709305
aF8.48362804685588
aF8.487779162625102
aF8.497497063211206
aF8.497498172053513
aF8.498416001048607
aF8.498515644762863
aF8.500037866359065
aF8.501536582159735
aF8.504001131250122
aF8.510160520775722
aF8.513641120196601
aF8.513953604152649
aF8.517196279607397
aF8.51743929259556
aF8.518611090836794
aF8.52358585554012
aF8.526330868797299
aF8.526464079248665
aF8.529016610325447
aF8.530277778702514
aF8.530554239484259
aF8.534956592155797
aF8.535142633737676
aF8.535513837896735
aF8.536767515722689
aF8.537034929760686
aF8.537895454185886
aF8.539489588523585
aF8.540962376302046
aF8.541136112754085
aF8.542421966633889
aF8.54507627244713
aF8.54656663935681
aF8.54682318118248
aF8.548665636517033
aF8.548998652230846
aF8.54940583836935
aF8.54942037494335
aF8.550962358345501
aF8.552942266768406
aF8.553480607308428
aF8.554447147024623
aF8.555039451567875
aF8.555125062118933
aF8.556814297991362
aF8.558984760503726
aF8.559115836271928
aF8.56158961538425
aF8.562092549234428
aF8.562174343803235
aF8.568710440156586
aF8.56952567381698
aF8.569895280614615
aF8.57014488166106
aF8.5703453780172
aF8.570908139674925
aF8.571812819791486
aF8.57474938653026
aF8.575834429978755
aF8.576883707582047
aF8.577675834967042
aF8.578505519051093
aF8.579614343064419
aF8.579643285964103
aF8.581080512771964
aF8.581581501440802
aF8.58338885760355
aF8.583787103394926
aF8.585558087224866
aF8.585841176211614
aF8.586223470748276
aF8.587804681434566
aF8.588830257288054
aF8.589971596115381
aF8.590095294229267
aF8.591218479016998
aF8.591359488010317
aF8.592287768565892
aF8.593795585439285
aF8.593981036764806
aF8.59437108637005
aF8.595932654156819
aF8.597501965717509
aF8.597709018645611
aF8.599137901679072
aF8.599337460922943
aF8.601752276511553
aF8.603725682564727
aF8.60379819992397
aF8.605562322495468
aF8.605612048856138
aF8.606321930344226
aF8.609544280568146
aF8.610346996956686
aF8.610400275935042
aF8.613872039850644
aF8.617023277951487
aF8.617814449477814
aF8.618383988340435
aF8.61867524407021
aF8.619577430639023
aF8.621336767306493
aF8.621646428231786
aF8.621647577837132
aF8.622395214213908
aF8.622810869736572
aF8.624346431517486
aF8.624422598621175
aF8.625099130576334
aF8.625670095761963
aF8.626207805867379
aF8.626467993872444
aF8.62693625590282
aF8.627618564410707
aF8.628033370036922
aF8.628225069022342
aF8.629053636192742
aF8.62919975304415
aF8.629379852795724
aF8.631400788181784
aF8.631658319828254
aF8.632313734843622
aF8.63298379077724
aF8.63319117895242
aF8.633300807878227
aF8.633913421859445
aF8.635032433831547
aF8.635121553851906
aF8.635622628914357
aF8.635684520941329
aF8.635877585055715
aF8.637086779784266
aF8.637239723249342
aF8.637277673332017
aF8.637284547874266
aF8.637551722189516
aF8.637894999660642
aF8.637935620531476
aF8.6384402275643
aF8.6385087298078
aF8.638948454478856
aF8.639708802540078
aF8.640062147592038
aF8.640321119409412
aF8.641457378998396
aF8.641719872558921
aF8.643187261114713
aF8.64368553662938
aF8.643720597667608
aF8.643749722409192
aF8.643823331656993
aF8.643976428494685
aF8.644023313406258
aF8.644029240897815
aF8.644134301196068
aF8.64433651356466
aF8.644397071896528
aF8.646509195786415
aF8.64709470482513
aF8.647465698509722
aF8.649864860189586
aF8.649866447341516
aF8.65001084520969
aF8.650082226040688
aF8.650277514360601
aF8.650546594634495
aF8.651050591060045
aF8.651522721814255
aF8.652938452867893
aF8.653115189386282
aF8.653637991650974
aF8.653759997850429
aF8.65443862722478
aF8.65454077268914
aF8.656259016794506
aF8.656336720697002
aF8.656472395109908
aF8.65714984267675
aF8.657275337232683
aF8.657834253039631
aF8.658023328449646
aF8.658931722897655
aF8.659025154263315
aF8.659546693301081
aF8.6600987562389
aF8.66059489864879
aF8.660855659369005
aF8.661416697331521
aF8.66153630563703
aF8.661588714072929
aF8.661826975921645
aF8.662243777230616
aF8.6628912710217
aF8.663214974797185
aF8.663739610600551
aF8.663901405302685
aF8.665616126608532
aF8.665642209453697
aF8.666475328068714
aF8.667876251322516
aF8.668533482763818
aF8.66900462716444
aF8.66954890356442
aF8.670285987433395
aF8.670312125180052
aF8.670860927669787
aF8.671058941938215
aF8.671713933122588
aF8.672651266702978
aF8.673088442662495
aF8.674202054198094
aF8.674205942263843
aF8.67499330438207
aF8.675507873668117
aF8.675934780674025
aF8.676030840839044
aF8.676056659979587
aF8.677940514392334
aF8.678193095823152
aF8.678392829413864
aF8.678665744987015
aF8.67885389106904
aF8.679153967845206
aF8.679726894858463
aF8.679843892243015
aF8.680403633531556
aF8.680771760343728
aF8.68082291871118
aF8.680938696902112
aF8.681465768044783
aF8.681634601750458
aF8.682318207731301
aF8.682434233432451
aF8.682938652270455
aF8.683000869178672
aF8.683555429243214
aF8.683617255925277
aF8.683719095383838
aF8.683729628078327
aF8.68375771306817
aF8.683961934240994
aF8.683997474207684
aF8.684110372772858
aF8.684735859107784
aF8.688569967988366
aF8.688571803013152
aF8.688619738227976
aF8.688928216104099
aF8.689037667234105
aF8.689571366185662
aF8.690044362731788
aF8.690403315841825
aF8.691361058095206
aF8.692201269798808
aF8.69221639877605
aF8.692829743397436
aF8.694102982177036
aF8.694265715782995
aF8.695152957222323
aF8.69656614250359
aF8.696858709593393
aF8.69739965838153
aF8.697784727497218
aF8.698383565871863
aF8.698685544667633
aF8.699155227883956
aF8.699665586723158
aF8.69990799002599
aF8.700174293919316
aF8.700756514271538
aF8.701349698780133
aF8.702028665870168
aF8.702231064727728
aF8.702502635108264
aF8.703193538065758
aF8.703655860651022
aF8.704656493391433
aF8.705609390182914
aF8.705621270438838
aF8.705658603831765
aF8.705690840745065
aF8.706049129576293
aF8.706635083006418
aF8.707041620376856
aF8.707511645715918
aF8.707853680818834
aF8.708109033806513
aF8.708745553925086
aF8.709067315282136
aF8.70958847704935
aF8.709735224646082
aF8.709894318233285
aF8.710705194739026
aF8.711289784417472
aF8.711825735184682
aF8.71288493695961
aF8.712994452251793
aF8.71412933972685
aF8.714399566024525
aF8.714413553487747
aF8.714702997852545
aF8.714712712384058
aF8.714754398102908
aF8.715069366102135
aF8.715217767620139
aF8.715305742245913
aF8.715401941319623
aF8.716067490088365
aF8.716279101448919
aF8.716556992473203
aF8.717186375946559
aF8.717549959367656
aF8.718329072947347
aF8.719249281457625
aF8.71963858433822
aF8.722033494137104
aF8.723063352248719
aF8.72334950625171
aF8.72335624923148
aF8.723583810321777
aF8.723717852613088
aF8.726001091217622
aF8.726139422878854
aF8.726353319012652
aF8.727036631729453
aF8.727986874783754
aF8.728819717692597
aF8.72887185612171
aF8.728987243457793
aF8.729729621303838
aF8.729951640205107
aF8.73016041491005
aF8.730333869307536
aF8.730961451395196
aF8.73099817931822
aF8.731115648899626
aF8.731222026857319
aF8.732194273727227
aF8.73221613137289
aF8.732663506226146
aF8.732962818960598
aF8.733169262366403
aF8.733402519941407
aF8.73473341591051
aF8.735116019186757
aF8.735146369093588
aF8.735645321522574
aF8.73568978571753
aF8.736030805651055
aF8.736828608305201
aF8.737203817392158
aF8.737711282190935
aF8.738499475944938
aF8.739118427517639
aF8.739277919878898
aF8.739663728793602
aF8.740218850044334
aF8.741359642812084
aF8.741497709041981
aF8.742007782238009
aF8.74214685047183
aF8.742721862665396
aF8.743942650880227
aF8.744758751584417
aF8.744853334340013
aF8.745207780539996
aF8.746348495640783
aF8.747018267381058
aF8.747156646512767
aF8.748152984974116
aF8.748157824150551
aF8.748598941376851
aF8.748961500158037
aF8.749622646496993
aF8.749988265736555
aF8.750317875771964
aF8.750515484616747
aF8.750545489990978
aF8.750840366929722
aF8.751156430823906
aF8.752678026350674
aF8.753264552800545
aF8.753745177054615
aF8.754264710289755
aF8.75471332680057
aF8.755249019833585
aF8.756145881248926
aF8.756363959984624
aF8.757259421776396
aF8.75729193250809
aF8.757392349130315
aF8.757597278167013
aF8.758670508093449
aF8.760467471121958
aF8.761877891444339
aF8.762413465351273
aF8.762833319702617
aF8.76300369928978
aF8.763674757394826
aF8.764454356121636
aF8.765787501442086
aF8.766011390592418
aF8.76637508029559
aF8.76641875982536
aF8.766709282658567
aF8.766953990970409
aF8.767001256870111
aF8.76735866471775
aF8.767764908999919
aF8.768988490378206
aF8.769087862445936
aF8.769495239203302
aF8.769624153852494
aF8.770313597197934
aF8.770530549398735
aF8.770598969737602
aF8.770760391212528
aF8.77099679293573
aF8.771900434412956
aF8.77264404877101
aF8.773856254638053
aF8.774495402061822
aF8.774589395086897
aF8.774997047929032
aF8.77520940695854
aF8.775290672037203
aF8.776313932504252
aF8.77657978755307
aF8.776805373292797
aF8.776964738570511
aF8.777690342045275
aF8.777833637570195
aF8.777952697022622
aF8.78039219435453
aF8.780648920297935
aF8.781232806624232
aF8.781711236383723
aF8.782614084091946
aF8.784643848645452
aF8.785569282246577
aF8.785992161371734
aF8.787233529832848
aF8.787926910744229
aF8.788525180110303
aF8.788564877838185
aF8.789784649038518
aF8.78998597871317
aF8.790111419652797
aF8.79245715780932
aF8.79281554816136
aF8.792843920438202
aF8.792916476573962
aF8.793227732127217
aF8.793253063697437
aF8.793783755680042
aF8.79469950804589
aF8.79586248355801
aF8.796101981650926
aF8.796226649768174
aF8.787708622777114
asS'KD02_lx'
p2438
(lp2439
F8.543773
aF8.55359
aF8.60835
aF8.656636
aF8.657909
aF8.666754
aF8.713383
aF8.720263000000001
aF8.743167
aF8.749364
aF8.759786
aF8.824925
aF8.839068
aF8.857911
aF8.868675999999999
aF8.87077
aF8.91155
aF8.914944
aF8.915661
aF8.942110000000001
aF8.947046
aF8.951709
aF8.98378
aF8.996685000000001
aF9.001499
aF9.019932
aF9.036472999999999
aF9.039227
aF9.05898
aF9.089564999999999
aF9.105977000000001
aF9.110534
aF9.123761
aF9.127423
aF9.130244
aF9.138661
aF9.140399
aF9.144537
aF9.144544999999999
aF9.155407
aF9.160025
aF9.171052
aF9.197144999999999
aF9.197148
aF9.199633
aF9.199902999999999
aF9.204033
aF9.208109
aF9.214833
aF9.231755
aF9.241392999999999
aF9.242261
aF9.251294999999999
aF9.251974
aF9.255252
aF9.269241000000001
aF9.277011
aF9.277389
aF9.284649
aF9.288248
aF9.289038
aF9.30167
aF9.302206
aF9.303276
aF9.306894999999999
aF9.307668
aF9.310158
aF9.314781
aF9.319064
aF9.31957
aF9.323319999999999
aF9.331089
aF9.335467999999999
aF9.336223
aF9.341656
aF9.34264
aF9.343844
aF9.343886999999999
aF9.348455
aF9.354339999999999
aF9.355944000000001
aF9.358827999999999
aF9.360598
aF9.360854
aF9.365914
aF9.37244
aF9.372835
aF9.380309
aF9.381833
aF9.382081
aF9.402031
aF9.404538
aF9.405676
aF9.406445
aF9.407063
aF9.408799
aF9.411594000000001
aF9.420703
aF9.424083
aF9.427359
aF9.429837
aF9.432437
aF9.435919
aF9.436010000000001
aF9.440536
aF9.442117
aF9.447835000000001
aF9.449098
aF9.454728
aF9.455630000000001
aF9.456849
aF9.461902
aF9.465189
aF9.468856
aF9.469254
aF9.472873
aF9.473328
aF9.476327000000001
aF9.481212
aF9.481814
aF9.483081
aF9.488164999999999
aF9.493293
aF9.493971
aF9.498659
aF9.499315
aF9.507278
aF9.513819999999999
aF9.514061
aF9.519936999999999
aF9.520103
aF9.522475
aF9.533294999999999
aF9.536004
aF9.536184
aF9.547966
aF9.558752
aF9.561474
aF9.563437
aF9.564442
aF9.56756
aF9.573661999999999
aF9.574739
aF9.574743
aF9.577347
aF9.578797
aF9.584168
aF9.584435000000001
aF9.586808999999999
aF9.588816
aF9.590709
aF9.591626
aF9.593278
aF9.595689
aF9.597157000000001
aF9.597836000000001
aF9.600775
aF9.601294000000001
aF9.601934
aF9.609138
aF9.610059
aF9.612406
aF9.61481
aF9.615555
aF9.615949
aF9.618153
aF9.622189
aF9.622511
aF9.624323
aF9.624547
aF9.625246
aF9.629633
aF9.630189
aF9.630327000000001
aF9.630352
aF9.631324000000001
aF9.632574
aF9.632722
aF9.634561999999999
aF9.634812
aF9.636417999999999
aF9.6392
aF9.640495
aF9.641445
aF9.645622
aF9.646589
aF9.652009
aF9.653855
aF9.653985
aF9.654093
aF9.654366
aF9.654933999999999
aF9.655108
aF9.65513
aF9.65552
aF9.656271
aF9.656496
aF9.66437
aF9.666561999999999
aF9.667953
aF9.676988
aF9.676994
aF9.677539999999999
aF9.677810000000001
aF9.678549
aF9.679568
aF9.681479
aF9.683272
aF9.688665
aF9.68934
aF9.691339
aF9.691806
aF9.694407
aF9.694799
aF9.701413
aF9.701713
aF9.702237
aF9.704857
aF9.705343
aF9.707510000000001
aF9.708244
aF9.711777
aF9.712141
aF9.714175
aF9.716332000000001
aF9.718274000000001
aF9.719296
aF9.721498
aF9.721967999999999
aF9.722174
aF9.723111
aF9.724752
aF9.727306
aF9.728585
aF9.730661
aF9.731302000000001
aF9.738118
aF9.738222
aF9.741549000000001
aF9.747166
aF9.749811
aF9.751711
aF9.753910000000001
aF9.756895
aF9.757000999999999
aF9.759229
aF9.760034
aF9.762701
aF9.766529
aF9.768319
aF9.772892
aF9.772908000000001
aF9.776153
aF9.778279
aF9.780046
aF9.780444000000001
aF9.780550999999999
aF9.788387
aF9.789442
aF9.790277
aF9.791419
aF9.792207000000001
aF9.793465
aF9.795871
aF9.796363000000001
aF9.79872
aF9.800272999999999
aF9.800489
aF9.800978
aF9.803207
aF9.803922
aF9.806822
aF9.807315
aF9.809461
aF9.809726
aF9.812091
aF9.812355
aF9.81279
aF9.812835
aF9.812955
aF9.813827999999999
aF9.81398
aF9.814463
aF9.817143
aF9.833724
aF9.833732000000001
aF9.833941000000001
aF9.835287
aF9.835764999999999
aF9.838099
aF9.840172
aF9.841747999999999
aF9.845965
aF9.849679
aF9.849746000000001
aF9.852466
aF9.858136
aF9.858863000000001
aF9.862836
aF9.869197
aF9.870519
aF9.872968
aF9.874715
aF9.877438
aF9.878814
aF9.880958
aF9.883293
aF9.884404
aF9.885626
aF9.888303
aF9.891038
aF9.894178
aF9.895116
aF9.896376
aF9.899589
aF9.901745
aF9.906428
aF9.910909
aF9.910965
aF9.911141
aF9.911292999999999
aF9.912984
aF9.915756
aF9.917684
aF9.919918
aF9.921547
aF9.922765
aF9.925808
aF9.92735
aF9.929853
aF9.930558999999999
aF9.931325
aF9.935239
aF9.938071
aF9.940675
aF9.945843
aF9.946378999999999
aF9.951952
aF9.953284
aF9.953353
aF9.954782000000002
aF9.954830000000001
aF9.955036
aF9.956594
aF9.957329
aF9.957765
aF9.958242
aF9.961549
aF9.962603
aF9.963989
aF9.967136
aF9.968959
aF9.972878
aF9.977528999999999
aF9.979503999999999
aF9.991752
aF9.997072
aF9.998555999999999
aF9.998591000000001
aF9.999773
aF10.00047
aF10.01243
aF10.013160000000001
aF10.014289999999999
aF10.01791
aF10.022969999999999
aF10.02743
aF10.02771
aF10.02833
aF10.03233
aF10.03353
aF10.03466
aF10.0356
aF10.039010000000001
aF10.03921
aF10.03985
aF10.04043
aF10.04575
aF10.045869999999999
aF10.04833
aF10.04998
aF10.05112
aF10.05241
aF10.05981
aF10.06195
aF10.06212
aF10.064919999999999
aF10.06517
aF10.067089999999999
aF10.0716
aF10.07373
aF10.07662
aF10.08113
aF10.08469
aF10.08561
aF10.08784
aF10.09106
aF10.097719999999999
aF10.09853
aF10.10153
aF10.10235
aF10.10575
aF10.11302
aF10.11792
aF10.11849
aF10.12063
aF10.12756
aF10.13166
aF10.13251
aF10.13866
aF10.138689999999999
aF10.14143
aF10.14369
aF10.14783
aF10.15013
aF10.15221
aF10.15346
aF10.15365
aF10.15552
aF10.15753
aF10.16729
aF10.17109
aF10.17422
aF10.17762
aF10.18057
aF10.18411
aF10.19008
aF10.19154
aF10.197569999999999
aF10.19779
aF10.19847
aF10.199860000000001
aF10.207189999999999
aF10.219660000000001
aF10.22963
aF10.233460000000001
aF10.23648
aF10.23771
aF10.24258
aF10.248289999999999
aF10.258189999999999
aF10.25987
aF10.26261
aF10.262939999999999
aF10.265139999999999
aF10.267000000000001
aF10.26736
aF10.27009
aF10.27321
aF10.28272
aF10.2835
aF10.286710000000001
aF10.28773
aF10.29322
aF10.294960000000001
aF10.29551
aF10.29681
aF10.29872
aF10.30609
aF10.31224
aF10.32244
aF10.327910000000001
aF10.32872
aF10.33225
aF10.3341
aF10.334810000000001
aF10.34385
aF10.34623
aF10.34826
aF10.3497
aF10.35632
aF10.35764
aF10.35874
aF10.38198
aF10.38451
aF10.39033
aF10.39517
aF10.40449
aF10.42645
aF10.437000000000001
aF10.44195
aF10.45701
aF10.465810000000001
aF10.47366
aF10.47419
aF10.4911
aF10.494019999999999
aF10.49586
aF10.534
aF10.54066
aF10.5412
aF10.542589999999999
aF10.54871
aF10.54922
aF10.56038
aF10.582510000000001
aF10.622110000000001
aF10.634960000000001
aF10.697280000000001
aF10.853069999999999
asS'KD02_ux'
p2440
(lp2441
F8.543773
aF8.55359
aF8.60835
aF8.656636
aF8.657909
aF8.666754
aF8.713383
aF8.720263000000001
aF8.743167
aF8.749364
aF8.759786
aF8.824925
aF8.839068
aF8.857911
aF8.868675999999999
aF8.87077
aF8.91155
aF8.914944
aF8.915661
aF8.942110000000001
aF8.947046
aF8.951709
aF8.98378
aF8.996685000000001
aF9.001499
aF9.019932
aF9.036472999999999
aF9.039227
aF9.05898
aF9.089564999999999
aF9.105977000000001
aF9.110534
aF9.123761
aF9.127423
aF9.130244
aF9.138661
aF9.140399
aF9.144537
aF9.144544999999999
aF9.155407
aF9.160025
aF9.171052
aF9.197144999999999
aF9.197148
aF9.199633
aF9.199902999999999
aF9.204033
aF9.208109
aF9.214833
aF9.231755
aF9.241392999999999
aF9.242261
aF9.251294999999999
aF9.251974
aF9.255252
aF9.269241000000001
aF9.277011
aF9.277389
aF9.284649
aF9.288248
aF9.289038
aF9.30167
aF9.302206
aF9.303276
aF9.306894999999999
aF9.307668
aF9.310158
aF9.314781
aF9.319064
aF9.31957
aF9.323319999999999
aF9.331089
aF9.335467999999999
aF9.336223
aF9.341656
aF9.34264
aF9.343844
aF9.343886999999999
aF9.348455
aF9.354339999999999
aF9.355944000000001
aF9.358827999999999
aF9.360598
aF9.360854
aF9.365914
aF9.37244
aF9.372835
aF9.380309
aF9.381833
aF9.382081
aF9.402031
aF9.404538
aF9.405676
aF9.406445
aF9.407063
aF9.408799
aF9.411594000000001
aF9.420703
aF9.424083
aF9.427359
aF9.429837
aF9.432437
aF9.435919
aF9.436010000000001
aF9.440536
aF9.442117
aF9.447835000000001
aF9.449098
aF9.454728
aF9.455630000000001
aF9.456849
aF9.461902
aF9.465189
aF9.468856
aF9.469254
aF9.472873
aF9.473328
aF9.476327000000001
aF9.481212
aF9.481814
aF9.483081
aF9.488164999999999
aF9.493293
aF9.493971
aF9.498659
aF9.499315
aF9.507278
aF9.513819999999999
aF9.514061
aF9.519936999999999
aF9.520103
aF9.522475
aF9.533294999999999
aF9.536004
aF9.536184
aF9.547966
aF9.558752
aF9.561474
aF9.563437
aF9.564442
aF9.56756
aF9.573661999999999
aF9.574739
aF9.574743
aF9.577347
aF9.578797
aF9.584168
aF9.584435000000001
aF9.586808999999999
aF9.588816
aF9.590709
aF9.591626
aF9.593278
aF9.595689
aF9.597157000000001
aF9.597836000000001
aF9.600775
aF9.601294000000001
aF9.601934
aF9.609138
aF9.610059
aF9.612406
aF9.61481
aF9.615555
aF9.615949
aF9.618153
aF9.622189
aF9.622511
aF9.624323
aF9.624547
aF9.625246
aF9.629633
aF9.630189
aF9.630327000000001
aF9.630352
aF9.631324000000001
aF9.632574
aF9.632722
aF9.634561999999999
aF9.634812
aF9.636417999999999
aF9.6392
aF9.640495
aF9.641445
aF9.645622
aF9.646589
aF9.652009
aF9.653855
aF9.653985
aF9.654093
aF9.654366
aF9.654933999999999
aF9.655108
aF9.65513
aF9.65552
aF9.656271
aF9.656496
aF9.66437
aF9.666561999999999
aF9.667953
aF9.676988
aF9.676994
aF9.677539999999999
aF9.677810000000001
aF9.678549
aF9.679568
aF9.681479
aF9.683272
aF9.688665
aF9.68934
aF9.691339
aF9.691806
aF9.694407
aF9.694799
aF9.701413
aF9.701713
aF9.702237
aF9.704857
aF9.705343
aF9.707510000000001
aF9.708244
aF9.711777
aF9.712141
aF9.714175
aF9.716332000000001
aF9.718274000000001
aF9.719296
aF9.721498
aF9.721967999999999
aF9.722174
aF9.723111
aF9.724752
aF9.727306
aF9.728585
aF9.730661
aF9.731302000000001
aF9.738118
aF9.738222
aF9.741549000000001
aF9.747166
aF9.749811
aF9.751711
aF9.753910000000001
aF9.756895
aF9.757000999999999
aF9.759229
aF9.760034
aF9.762701
aF9.766529
aF9.768319
aF9.772892
aF9.772908000000001
aF9.776153
aF9.778279
aF9.780046
aF9.780444000000001
aF9.780550999999999
aF9.788387
aF9.789442
aF9.790277
aF9.791419
aF9.792207000000001
aF9.793465
aF9.795871
aF9.796363000000001
aF9.79872
aF9.800272999999999
aF9.800489
aF9.800978
aF9.803207
aF9.803922
aF9.806822
aF9.807315
aF9.809461
aF9.809726
aF9.812091
aF9.812355
aF9.81279
aF9.812835
aF9.812955
aF9.813827999999999
aF9.81398
aF9.814463
aF9.817143
aF9.833724
aF9.833732000000001
aF9.833941000000001
aF9.835287
aF9.835764999999999
aF9.838099
aF9.840172
aF9.841747999999999
aF9.845965
aF9.849679
aF9.849746000000001
aF9.852466
aF9.858136
aF9.858863000000001
aF9.862836
aF9.869197
aF9.870519
aF9.872968
aF9.874715
aF9.877438
aF9.878814
aF9.880958
aF9.883293
aF9.884404
aF9.885626
aF9.888303
aF9.891038
aF9.894178
aF9.895116
aF9.896376
aF9.899589
aF9.901745
aF9.906428
aF9.910909
aF9.910965
aF9.911141
aF9.911292999999999
aF9.912984
aF9.915756
aF9.917684
aF9.919918
aF9.921547
aF9.922765
aF9.925808
aF9.92735
aF9.929853
aF9.930558999999999
aF9.931325
aF9.935239
aF9.938071
aF9.940675
aF9.945843
aF9.946378999999999
aF9.951952
aF9.953284
aF9.953353
aF9.954782000000002
aF9.954830000000001
aF9.955036
aF9.956594
aF9.957329
aF9.957765
aF9.958242
aF9.961549
aF9.962603
aF9.963989
aF9.967136
aF9.968959
aF9.972878
aF9.977528999999999
aF9.979503999999999
aF9.991752
aF9.997072
aF9.998555999999999
aF9.998591000000001
aF9.999773
aF10.00047
aF10.01243
aF10.013160000000001
aF10.014289999999999
aF10.01791
aF10.022969999999999
aF10.02743
aF10.02771
aF10.02833
aF10.03233
aF10.03353
aF10.03466
aF10.0356
aF10.039010000000001
aF10.03921
aF10.03985
aF10.04043
aF10.04575
aF10.045869999999999
aF10.04833
aF10.04998
aF10.05112
aF10.05241
aF10.05981
aF10.06195
aF10.06212
aF10.064919999999999
aF10.06517
aF10.067089999999999
aF10.0716
aF10.07373
aF10.07662
aF10.08113
aF10.08469
aF10.08561
aF10.08784
aF10.09106
aF10.097719999999999
aF10.09853
aF10.10153
aF10.10235
aF10.10575
aF10.11302
aF10.11792
aF10.11849
aF10.12063
aF10.12756
aF10.13166
aF10.13251
aF10.13866
aF10.138689999999999
aF10.14143
aF10.14369
aF10.14783
aF10.15013
aF10.15221
aF10.15346
aF10.15365
aF10.15552
aF10.15753
aF10.16729
aF10.17109
aF10.17422
aF10.17762
aF10.18057
aF10.18411
aF10.19008
aF10.19154
aF10.197569999999999
aF10.19779
aF10.19847
aF10.199860000000001
aF10.207189999999999
aF10.219660000000001
aF10.22963
aF10.233460000000001
aF10.23648
aF10.23771
aF10.24258
aF10.248289999999999
aF10.258189999999999
aF10.25987
aF10.26261
aF10.262939999999999
aF10.265139999999999
aF10.267000000000001
aF10.26736
aF10.27009
aF10.27321
aF10.28272
aF10.2835
aF10.286710000000001
aF10.28773
aF10.29322
aF10.294960000000001
aF10.29551
aF10.29681
aF10.29872
aF10.30609
aF10.31224
aF10.32244
aF10.327910000000001
aF10.32872
aF10.33225
aF10.3341
aF10.334810000000001
aF10.34385
aF10.34623
aF10.34826
aF10.3497
aF10.35632
aF10.35764
aF10.35874
aF10.38198
aF10.38451
aF10.39033
aF10.39517
aF10.40449
aF10.42645
aF10.437000000000001
aF10.44195
aF10.45701
aF10.465810000000001
aF10.47366
aF10.47419
aF10.4911
aF10.494019999999999
aF10.49586
aF10.534
aF10.54066
aF10.5412
aF10.542589999999999
aF10.54871
aF10.54922
aF10.56038
aF10.582510000000001
aF10.622110000000001
aF10.634960000000001
aF10.697280000000001
aF10.853069999999999
asS'KD02_uy'
p2442
(lp2443
F8.610797778021768
aF8.61510492907506
aF8.639290200511285
aF8.660744945452873
aF8.661311135469704
aF8.665245104655236
aF8.68596271548512
aF8.689013297661319
aF8.699150444668259
aF8.701887507917203
aF8.706484368797138
aF8.734992421249725
aF8.741121040650334
aF8.749246834646716
aF8.75386768819412
aF8.754764656645769
aF8.772104070820747
aF8.773535656454065
aF8.77383785104388
aF8.784926655837568
aF8.786983144930455
aF8.78892206524748
aF8.802154217874637
aF8.807426428563586
aF8.80938527325163
aF8.816845619996464
aF8.823485159758366
aF8.824585484347718
aF8.83243407447081
aF8.844433752207962
aF8.850794911658188
aF8.852551405859371
aF8.857625555762413
aF8.85902398889797
aF8.860099368927946
aF8.863298150871241
aF8.863956820873996
aF8.865522511156216
aF8.865525534635092
aF8.869618328903881
aF8.871350896451784
aF8.875469834086452
aF8.885114096717523
aF8.885115197256608
aF8.88602614894365
aF8.886125046497723
aF8.8876358801373
aF8.88912339965559
aF8.891569558479125
aF8.897682988084297
aF8.901137540567257
aF8.901447681459628
aF8.904665986886975
aF8.904907169046703
aF8.90607012937341
aF8.911007175625745
aF8.913731224293581
aF8.91386341444171
aF8.91639634043088
aF8.91764778357617
aF8.917922109046431
aF8.922290290142083
aF8.922474880633809
aF8.922843187869477
aF8.924087065192571
aF8.924352385512883
aF8.925206164599494
aF8.92678777223698
aF8.92824895194252
aF8.9284213169089
aF8.929697006244922
aF8.932330255407823
aF8.933808757699895
aF8.93406325441425
aF8.935890998437198
aF8.936221350994472
aF8.936625279130897
aF8.936639699361235
aF8.938169328967206
aF8.940133341607718
aF8.94066735422262
aF8.941626117972769
aF8.942213654070748
aF8.942298575204404
aF8.94397419879736
aF8.94612715111225
aF8.946257168907621
aF8.948710974422134
aF8.949209846832417
aF8.949290980913208
aF8.955774357492764
aF8.956583032881841
aF8.956949668337083
aF8.957197263525932
aF8.957396149081257
aF8.95795439176152
aF8.958851814694462
aF8.961764899224338
aF8.962841299967693
aF8.963882239788651
aF8.964668086891411
aF8.965491206881941
aF8.966591282038182
aF8.96661999697428
aF8.968045928383996
aF8.968542992076742
aF8.970336245715496
aF8.970731396767654
aF8.972488678006753
aF8.972769586033332
aF8.973148939682314
aF8.974718040824463
aF8.975735811480297
aF8.976868512097328
aF8.976991277164172
aF8.978106018826185
aF8.978245971624856
aF8.979167320713266
aF8.98066396174293
aF8.98084804584732
aF8.98123522526586
aF8.982785377298416
aF8.984343342781774
aF8.984548908586836
aF8.985967593475372
aF8.986165737638604
aF8.988563615941958
aF8.990523448743419
aF8.990595472077574
aF8.992347686345715
aF8.992397080142396
aF8.993102232503553
aF8.996303574438
aF8.997101179251345
aF8.99715412070411
aF9.000604386202586
aF9.003736996197235
aF9.004523630355441
aF9.00508993868217
aF9.005379554079646
aF9.006276710300096
aF9.008026462660547
aF9.008334468033956
aF9.00833561151074
aF9.009079290273087
aF9.00949276988133
aF9.011020446111603
aF9.011096228435088
aF9.011769369232542
aF9.01233751005167
aF9.0128725919796
aF9.013131519426155
aF9.013597531294828
aF9.014276603777919
aF9.014689467056487
aF9.014880274812906
aF9.015705037062213
aF9.015850490835854
aF9.016029776675472
aF9.018041832276007
aF9.018298266176174
aF9.018950922441269
aF9.019618210237367
aF9.01982475241411
aF9.019933936226971
aF9.020544089222172
aF9.02165872263598
aF9.02174750045716
aF9.022246669702588
aF9.022308328471915
aF9.022500667961664
aF9.023705429141668
aF9.023857824810905
aF9.02389563939463
aF9.023902489444179
aF9.024168715305406
aF9.02451078734983
aF9.024551266605346
aF9.02505413127117
aF9.025122399472234
aF9.0255606360603
aF9.026318469202387
aF9.026670670836099
aF9.026928814844327
aF9.028061545296627
aF9.028323247559479
aF9.02978637980864
aF9.030283275043708
aF9.030318240207036
aF9.030347285450786
aF9.030420694223938
aF9.030573376435168
aF9.030620135003321
aF9.030626046547738
aF9.030730824883612
aF9.03093249875393
aF9.03099289686483
aF9.03309974374109
aF9.033683897625663
aF9.034054057015096
aF9.03644828411125
aF9.036449868283114
aF9.03659399481109
aF9.036665242581673
aF9.036860170564212
aF9.03712876307424
aF9.03763187340175
aF9.038103206642687
aF9.039516735849134
aF9.039693217593994
aF9.040215292188531
aF9.040337134167252
aF9.041014889333402
aF9.04111690889861
aF9.042833261239887
aF9.042910889715895
aF9.043046434426053
aF9.043723274482629
aF9.043848663770163
aF9.044407138784827
aF9.044596075317552
aF9.045503875348185
aF9.045597252469296
aF9.046118511758216
aF9.04667032195279
aF9.047166275270852
aF9.04742695105621
aF9.047987840095171
aF9.048107422612437
aF9.048159820411827
aF9.048398039008909
aF9.048814784653414
aF9.049462242572876
aF9.049785951428113
aF9.05031062828595
aF9.050472443788816
aF9.052187621972228
aF9.052213715058283
aF9.053047214649766
aF9.054449007902429
aF9.055106746443668
aF9.055578293244565
aF9.056123074742692
aF9.056860911475027
aF9.056887077367536
aF9.057436493732679
aF9.057634740212167
aF9.058290539957119
aF9.0592291384283
aF9.059666947615655
aF9.060782295792958
aF9.060786190235795
aF9.061574887462609
aF9.062090376830668
aF9.062518075615673
aF9.062614317469002
aF9.062640185709895
aF9.06452787184982
aF9.064781004677942
aF9.064981180495886
aF9.065254709228824
aF9.06544328404005
aF9.065744054688391
aF9.066318340683244
aF9.0664356211236
aF9.066996742334789
aF9.067365799837692
aF9.06741708895861
aF9.067533164469792
aF9.068061611772043
aF9.068230894189613
aF9.068916355848165
aF9.069032702647705
aF9.069538538236817
aF9.069600932196801
aF9.070157092976267
aF9.070219100592873
aF9.070321239189857
aF9.070331802907168
aF9.070359970646242
aF9.070564796779209
aF9.070600442580835
aF9.070713678477295
aF9.071341063310973
aF9.075187889327081
aF9.07518973089237
aF9.075237836575107
aF9.075547418116109
aF9.075657263539858
aF9.076192905771963
aF9.076667652712048
aF9.077027951696747
aF9.077989357962588
aF9.0788328701449
aF9.07884805929508
aF9.079463864279145
aF9.080742342040388
aF9.080905757785876
aF9.081796767916181
aF9.083216123772731
aF9.083509993506112
aF9.084053373070644
aF9.08444018989087
aF9.085041774489314
aF9.08534515095505
aF9.085817025000924
aF9.086329787346285
aF9.086573340471679
aF9.08684091361623
aF9.087425930790834
aF9.088021994982872
aF9.088704294823179
aF9.08890769455524
aF9.089180613179963
aF9.089874972849497
aF9.090339629622846
aF9.091345370169194
aF9.092303199670848
aF9.092315141835206
aF9.092352669852797
aF9.092385074921753
aF9.09274523712638
aF9.093334273267018
aF9.093742962947282
aF9.094215490156362
aF9.094559354706147
aF9.094816078269693
aF9.095456032104542
aF9.095779538386926
aF9.096303539132569
aF9.096451088909891
aF9.09661105356879
aF9.097426390867126
aF9.098014217941893
aF9.09855315184046
aF9.099618289474614
aF9.09972842144383
aF9.100869729737765
aF9.101141492727411
aF9.101155559809103
aF9.101446653532548
aF9.101456423478838
aF9.101498347018023
aF9.101815114103317
aF9.10196436459168
aF9.10205284287326
aF9.102149592978375
aF9.10281896329777
aF9.103031792924252
aF9.10331128607867
aF9.103944307280804
aF9.104309997732386
aF9.105093639495442
aF9.106019217383103
aF9.106410798287175
aF9.108819795642688
aF9.109855745635528
aF9.110143595464654
aF9.11015037847381
aF9.110379289054798
aF9.110514126678058
aF9.11281095225435
aF9.112950109369029
aF9.113165282342347
aF9.113852677951774
aF9.11480860874037
aF9.115646446284794
aF9.115698897722353
aF9.11581497781607
aF9.116561817399246
aF9.116785172148722
aF9.116995203744175
aF9.117169702890372
aF9.11780106899937
aF9.117838018616911
aF9.117956197229647
aF9.11806321758255
aF9.119041344933933
aF9.119063335022993
aF9.119513422298525
aF9.119814552321284
aF9.120022250343936
aF9.120256926759033
aF9.121595946568975
aF9.121980895369996
aF9.122011431524722
aF9.122513450983243
aF9.122558188966638
aF9.122901311083908
aF9.123704051125577
aF9.124081592408062
aF9.12459222296887
aF9.125385362545643
aF9.126008225387661
aF9.126168729887862
aF9.126556994896259
aF9.127115670467864
aF9.128263852188708
aF9.128402821210999
aF9.128916247194791
aF9.129056234518984
aF9.129635071175498
aF9.130864121375305
aF9.131685868125611
aF9.131781112318277
aF9.132138050982526
aF9.133286947658972
aF9.133961648987562
aF9.134101059293315
aF9.135104961095799
aF9.135109837633935
aF9.135554387607733
aF9.135919809336647
aF9.13658627929424
aF9.136954903063597
aF9.137287260806913
aF9.137486535483182
aF9.137516795031912
aF9.137814187661586
aF9.138132984789321
aF9.139668320794295
aF9.140260427921646
aF9.14074575583913
aF9.141270514463846
aF9.141723767864967
aF9.14226515839663
aF9.143171979813957
aF9.143392565307911
aF9.144298696470631
aF9.144331606440355
aF9.144433261684737
aF9.14464074449238
aF9.145727948490048
aF9.147550843714987
aF9.148984225698616
aF9.14952920736749
aF9.149956725648964
aF9.150130290790283
aF9.150814339094117
aF9.151609972451606
aF9.152973139881253
aF9.153202421605165
aF9.153575101495525
aF9.153619880382067
aF9.153917825204648
aF9.15416893656114
aF9.154217455515694
aF9.154584513501419
aF9.15500211308731
aF9.156262571221362
aF9.156365126123749
aF9.156785865514031
aF9.156919116606758
aF9.157632672723967
aF9.15785754638452
aF9.157928499212808
aF9.158095962072268
aF9.15834138258628
aF9.159281469363638
aF9.160057592729942
aF9.161328231826824
aF9.162001189725101
aF9.162100343347193
aF9.162530962846708
aF9.16275567337116
aF9.162841737268566
aF9.163929030028392
aF9.164212677803919
aF9.16445375900698
aF9.164624297116129
aF9.16540325065596
aF9.165557583819881
aF9.165685945318247
aF9.168345600798382
aF9.168629209229305
aF9.169277283461799
aF9.169811666399104
aF9.170829163459032
aF9.173168194933009
aF9.174263687638561
aF9.174771573254684
aF9.17629344513285
aF9.177166928738028
aF9.177936617771403
aF9.177988267608404
aF9.179615816202007
aF9.179892963106882
aF9.180067031359714
aF9.183581756624381
aF9.184178606828254
aF9.184226798291949
aF9.184350709962436
aF9.184893975766212
aF9.184939081568144
aF9.185919953158752
aF9.187833095128243
aF9.191172477502265
aF9.192239464793845
aF9.197375156718062
aF9.211211677977953
asS'M08_lx'
p2444
(lp2445
F8.543773
aF8.55359
aF8.60835
aF8.656636
aF8.657909
aF8.666754
aF8.713383
aF8.720263000000001
aF8.743167
aF8.749364
aF8.759786
aF8.824925
aF8.839068
aF8.857911
aF8.868675999999999
aF8.87077
aF8.91155
aF8.914944
aF8.915661
aF8.942110000000001
aF8.947046
aF8.951709
aF8.98378
aF8.996685000000001
aF9.001499
aF9.019932
aF9.036472999999999
aF9.039227
aF9.05898
aF9.089564999999999
aF9.105977000000001
aF9.110534
aF9.123761
aF9.127423
aF9.130244
aF9.138661
aF9.140399
aF9.144537
aF9.144544999999999
aF9.155407
aF9.160025
aF9.171052
aF9.197144999999999
aF9.197148
aF9.199633
aF9.199902999999999
aF9.204033
aF9.208109
aF9.214833
aF9.231755
aF9.241392999999999
aF9.242261
aF9.251294999999999
aF9.251974
aF9.255252
aF9.269241000000001
aF9.277011
aF9.277389
aF9.284649
aF9.288248
aF9.289038
aF9.30167
aF9.302206
aF9.303276
aF9.306894999999999
aF9.307668
aF9.310158
aF9.314781
aF9.319064
aF9.31957
aF9.323319999999999
aF9.331089
aF9.335467999999999
aF9.336223
aF9.341656
aF9.34264
aF9.343844
aF9.343886999999999
aF9.348455
aF9.354339999999999
aF9.355944000000001
aF9.358827999999999
aF9.360598
aF9.360854
aF9.365914
aF9.37244
aF9.372835
aF9.380309
aF9.381833
aF9.382081
aF9.402031
aF9.404538
aF9.405676
aF9.406445
aF9.407063
aF9.408799
aF9.411594000000001
aF9.420703
aF9.424083
aF9.427359
aF9.429837
aF9.432437
aF9.435919
aF9.436010000000001
aF9.440536
aF9.442117
aF9.447835000000001
aF9.449098
aF9.454728
aF9.455630000000001
aF9.456849
aF9.461902
aF9.465189
aF9.468856
aF9.469254
aF9.472873
aF9.473328
aF9.476327000000001
aF9.481212
aF9.481814
aF9.483081
aF9.488164999999999
aF9.493293
aF9.493971
aF9.498659
aF9.499315
aF9.507278
aF9.513819999999999
aF9.514061
aF9.519936999999999
aF9.520103
aF9.522475
aF9.533294999999999
aF9.536004
aF9.536184
aF9.547966
aF9.558752
aF9.561474
aF9.563437
aF9.564442
aF9.56756
aF9.573661999999999
aF9.574739
aF9.574743
aF9.577347
aF9.578797
aF9.584168
aF9.584435000000001
aF9.586808999999999
aF9.588816
aF9.590709
aF9.591626
aF9.593278
aF9.595689
aF9.597157000000001
aF9.597836000000001
aF9.600775
aF9.601294000000001
aF9.601934
aF9.609138
aF9.610059
aF9.612406
aF9.61481
aF9.615555
aF9.615949
aF9.618153
aF9.622189
aF9.622511
aF9.624323
aF9.624547
aF9.625246
aF9.629633
aF9.630189
aF9.630327000000001
aF9.630352
aF9.631324000000001
aF9.632574
aF9.632722
aF9.634561999999999
aF9.634812
aF9.636417999999999
aF9.6392
aF9.640495
aF9.641445
aF9.645622
aF9.646589
aF9.652009
aF9.653855
aF9.653985
aF9.654093
aF9.654366
aF9.654933999999999
aF9.655108
aF9.65513
aF9.65552
aF9.656271
aF9.656496
aF9.66437
aF9.666561999999999
aF9.667953
aF9.676988
aF9.676994
aF9.677539999999999
aF9.677810000000001
aF9.678549
aF9.679568
aF9.681479
aF9.683272
aF9.688665
aF9.68934
aF9.691339
aF9.691806
aF9.694407
aF9.694799
aF9.701413
aF9.701713
aF9.702237
aF9.704857
aF9.705343
aF9.707510000000001
aF9.708244
aF9.711777
aF9.712141
aF9.714175
aF9.716332000000001
aF9.718274000000001
aF9.719296
aF9.721498
aF9.721967999999999
aF9.722174
aF9.723111
aF9.724752
aF9.727306
aF9.728585
aF9.730661
aF9.731302000000001
aF9.738118
aF9.738222
aF9.741549000000001
aF9.747166
aF9.749811
aF9.751711
aF9.753910000000001
aF9.756895
aF9.757000999999999
aF9.759229
aF9.760034
aF9.762701
aF9.766529
aF9.768319
aF9.772892
aF9.772908000000001
aF9.776153
aF9.778279
aF9.780046
aF9.780444000000001
aF9.780550999999999
aF9.788387
aF9.789442
aF9.790277
aF9.791419
aF9.792207000000001
aF9.793465
aF9.795871
aF9.796363000000001
aF9.79872
aF9.800272999999999
aF9.800489
aF9.800978
aF9.803207
aF9.803922
aF9.806822
aF9.807315
aF9.809461
aF9.809726
aF9.812091
aF9.812355
aF9.81279
aF9.812835
aF9.812955
aF9.813827999999999
aF9.81398
aF9.814463
aF9.833724
aF9.833732000000001
aF9.833941000000001
aF9.835287
aF9.835764999999999
aF9.838099
aF9.840172
aF9.841747999999999
aF9.845965
aF9.849679
aF9.849746000000001
aF9.852466
aF9.858136
aF9.858863000000001
aF9.862836
aF9.869197
aF9.870519
aF9.872968
aF9.874715
aF9.877438
aF9.878814
aF9.880958
aF9.883293
aF9.885626
aF9.888303
aF9.891038
aF9.894178
aF9.895116
aF9.896376
aF9.899589
aF9.901745
aF9.906428
aF9.910909
aF9.910965
aF9.911141
aF9.911292999999999
aF9.912984
aF9.915756
aF9.917684
aF9.919918
aF9.921547
aF9.922765
aF9.925808
aF9.92735
aF9.930558999999999
aF9.931325
aF9.935239
aF9.938071
aF9.940675
aF9.945843
aF9.946378999999999
aF9.951952
aF9.953284
aF9.953353
aF9.954782000000002
aF9.954830000000001
aF9.955036
aF9.956594
aF9.957329
aF9.957765
aF9.961549
aF9.962603
aF9.963989
aF9.967136
aF9.968959
aF9.972878
aF9.977528999999999
aF9.979503999999999
aF9.991752
aF9.998555999999999
aF9.998591000000001
aF9.999773
aF10.01243
aF10.013160000000001
aF10.014289999999999
aF10.01791
aF10.022969999999999
aF10.02743
aF10.02771
aF10.02833
aF10.03233
aF10.03353
aF10.03466
aF10.0356
aF10.039010000000001
aF10.03921
aF10.03985
aF10.04043
aF10.04575
aF10.045869999999999
aF10.04833
aF10.04998
aF10.05112
aF10.05241
aF10.05981
aF10.06195
aF10.06212
aF10.064919999999999
aF10.06517
aF10.067089999999999
aF10.0716
aF10.07373
aF10.07662
aF10.08113
aF10.08469
aF10.08561
aF10.08784
aF10.097719999999999
aF10.09853
aF10.10235
aF10.10575
aF10.11792
aF10.11849
aF10.12063
aF10.12756
aF10.13166
aF10.13251
aF10.138689999999999
aF10.14369
aF10.14783
aF10.15013
aF10.15221
aF10.15346
aF10.15552
aF10.15753
aF10.17109
aF10.17422
aF10.17762
aF10.18057
aF10.18411
aF10.19008
aF10.197569999999999
aF10.19779
aF10.19847
aF10.199860000000001
aF10.207189999999999
aF10.219660000000001
aF10.22963
aF10.233460000000001
aF10.23771
aF10.24258
aF10.248289999999999
aF10.258189999999999
aF10.25987
aF10.262939999999999
aF10.265139999999999
aF10.267000000000001
aF10.26736
aF10.27009
aF10.28272
aF10.2835
aF10.286710000000001
aF10.28773
aF10.29322
aF10.294960000000001
aF10.29551
aF10.29681
aF10.29872
aF10.31224
aF10.32244
aF10.327910000000001
aF10.32872
aF10.33225
aF10.334810000000001
aF10.34826
aF10.3497
aF10.35632
aF10.35764
aF10.35874
aF10.38451
aF10.39033
aF10.39517
aF10.40449
aF10.42645
aF10.437000000000001
aF10.44195
aF10.465810000000001
aF10.47419
aF10.4911
aF10.49586
aF10.534
aF10.54066
aF10.5412
aF10.54871
aF10.54922
aF10.697280000000001
aF10.853069999999999
asS'M08_ly'
p2446
(lp2447
F8.218719840204377
aF8.22457544072902
aF8.25629227231278
aF8.283022518807996
aF8.283712598749602
aF8.288487417227095
aF8.313103105277909
aF8.316659067897772
aF8.32836294060369
aF8.33149490242902
aF8.336729662671415
aF8.368566713248477
aF8.375288374165512
aF8.38414341218675
aF8.389151931825028
aF8.390121995329503
aF8.408748143471774
aF8.410276025800473
aF8.410598368212165
aF8.422385346347724
aF8.424562975690419
aF8.42661386377121
aF8.440555838550468
aF8.446086606931685
aF8.448138283149168
aF8.455937088462957
aF8.462859025411014
aF8.464004541818985
aF8.47216303713319
aF8.48459765237752
aF8.491172134501296
aF8.492985577644351
aF8.498219696535362
aF8.49966106131934
aF8.500769123613924
aF8.504063444400009
aF8.504741479935989
aF8.50635278835817
aF8.506355899365424
aF8.510565227068888
aF8.512345965617433
aF8.516576715699319
aF8.526468311749548
aF8.526469439378946
aF8.527402729241707
aF8.527504041459093
aF8.529051508678283
aF8.530574630899842
aF8.533078336763069
aF8.539330180534426
aF8.542859542787454
aF8.543176279630238
aF8.546461857951307
aF8.546707995290502
aF8.547894679647486
aF8.552929300695926
aF8.555704992387236
aF8.555839648539857
aF8.558419104799759
aF8.559693027871617
aF8.559972235801393
aF8.564415944539558
aF8.564603633980377
aF8.564978101701756
aF8.566242560630013
aF8.56651222608807
aF8.567379879722484
aF8.56898675269525
aF8.570470765186
aF8.570645791096043
aF8.57194095997017
aF8.574613211600346
aF8.576112890342827
aF8.576370979158723
aF8.578224059375414
aF8.578558904197102
aF8.578968288660517
aF8.578982902951063
aF8.580532823523637
aF8.58252203073078
aF8.583062724841183
aF8.584033301560389
aF8.584627959798514
aF8.584713902975217
aF8.58640930887189
aF8.588586592865273
aF8.588718040482046
aF8.591197972716133
aF8.59170195557268
aF8.591783914266227
aF8.598327180013532
aF8.599142472826632
aF8.599512044562264
aF8.599761600031755
aF8.599962046976154
aF8.600524608810272
aF8.601428778352455
aF8.604362065172388
aF8.605445263131118
aF8.606492427753322
aF8.607282744958608
aF8.608110333633977
aF8.609216037013404
aF8.609244893538566
aF8.610677514244134
aF8.611176750818563
aF8.612977152070666
aF8.61337373114233
aF8.615136711547095
aF8.615418431188651
aF8.615798837009477
aF8.617371750631733
aF8.618391524850422
aF8.619526015549164
aF8.619648946577078
aF8.620764942269139
aF8.620905020138839
aF8.621827011131606
aF8.623324017146576
aF8.62350808767922
aF8.623895196483925
aF8.625444490331468
aF8.627000654378952
aF8.627205911384562
aF8.62862200855324
aF8.62881972743373
aF8.63121120084829
aF8.633164046382795
aF8.633235782494737
aF8.634980334446546
aF8.635029493363968
aF8.635731178855671
aF8.638914071695812
aF8.639706378228384
aF8.639758957962913
aF8.643182918478205
aF8.646286885132197
aF8.647065598271492
aF8.647626020590675
aF8.647912566123061
aF8.64879995492348
aF8.650529526062419
aF8.650833822733661
aF8.650834952352078
aF8.651569481529673
aF8.651977754520185
aF8.653485447253205
aF8.65356020749919
aF8.654224140917679
aF8.654784329959966
aF8.65531177088218
aF8.655566947659619
aF8.656026121478588
aF8.656695026973734
aF8.65710159093098
aF8.657289457152494
aF8.658101283609856
aF8.65824441869163
aF8.658420831058885
aF8.660399459416693
aF8.660651476360886
aF8.661292729734056
aF8.661948118654694
aF8.662150928380278
aF8.662258129613313
aF8.662857082511483
aF8.663950722909235
aF8.664037798969648
aF8.66452731745763
aF8.664587774448947
aF8.664776351375139
aF8.665957070068602
aF8.666106365905703
aF8.66614340927893
aF8.666150119538113
aF8.666410891696897
aF8.66674589695384
aF8.666785535507149
aF8.667277878355033
aF8.667344706942243
aF8.667773638227791
aF8.668515118203251
aF8.66885960632117
aF8.669112050920322
aF8.670219311547765
aF8.67047502212355
aF8.671903908571757
aF8.672388883435481
aF8.672423004211176
aF8.672451347469966
aF8.672522979829527
aF8.672671956942603
aF8.67271757804763
aF8.672723345663925
aF8.672825569939427
aF8.673022309212946
aF8.673081224733291
aF8.6751349699776
aF8.675703920478712
aF8.676064337224636
aF8.678393491800945
aF8.678395031710073
aF8.678535126377186
aF8.678604376207756
aF8.678793821587504
aF8.679054820249428
aF8.679543583327176
aF8.680001329568196
aF8.681373259745433
aF8.681544457585813
aF8.682050783333322
aF8.68216892446405
aF8.682825917220232
aF8.682924785633258
aF8.684587100928491
aF8.684662239504405
aF8.684793427185108
aF8.685448328119598
aF8.685569619605214
aF8.686109715970558
aF8.686292387687708
aF8.68716975254313
aF8.687259967588936
aF8.687763467145448
aF8.688296276151805
aF8.688774974968325
aF8.689026514403068
aF8.68956758733665
aF8.689682917121116
aF8.689733448377037
aF8.689963157243684
aF8.690364921723093
aF8.69098886668845
aF8.691300710784796
aF8.691806001868436
aF8.691961799870816
aF8.69361206498595
aF8.693637154557242
aF8.694438343452193
aF8.695784678422672
aF8.696415908735878
aF8.696868258813648
aF8.697390661364729
aF8.69809784389158
aF8.698122915400804
aF8.698649236409192
aF8.698839094925155
aF8.699466940947982
aF8.700364977545489
aF8.700783642592382
aF8.701849571973678
aF8.701853292236226
aF8.70260647679859
aF8.703098500975695
aF8.70350657759717
aF8.70359838481079
aF8.703623059891472
aF8.705422293880302
aF8.705663356911389
aF8.705853952885537
aF8.706114341068846
aF8.706293822744232
aF8.706580032845924
aF8.707126321174584
aF8.707237852235336
aF8.707771316536364
aF8.708122048721918
aF8.708170782619243
aF8.708281067556705
aF8.708783018099496
aF8.708943765772535
aF8.709594435598722
aF8.70970483985606
aF8.710184713583429
aF8.710243891010046
aF8.710771242474713
aF8.71083002265556
aF8.71092683832028
aF8.710936851059133
aF8.710963549125083
aF8.711157669025406
aF8.711191448166169
aF8.711298747446348
aF8.715530006855142
aF8.715531745017678
aF8.715577148607077
aF8.715869294653128
aF8.71597293436554
aF8.716478170359428
aF8.716925766021612
aF8.717265332114701
aF8.718170876619169
aF8.718964727857653
aF8.718979017167726
aF8.719558173429927
aF8.72075951748007
aF8.720912971528737
aF8.721749255319432
aF8.723079989558343
aF8.723355287353835
aF8.723864123527951
aF8.724226188709816
aF8.724789011640077
aF8.725072716859092
aF8.72551382829778
aF8.72599293272265
aF8.726470269406983
aF8.727016317793566
aF8.727572352549247
aF8.728208426981444
aF8.728397962585227
aF8.728652217681356
aF8.729298778333261
aF8.729731194633517
aF8.730666449270618
aF8.731556250676794
aF8.731567339094045
aF8.731602183307361
aF8.731632269828008
aF8.731966594763128
aF8.732513103137462
aF8.732892086946455
aF8.73333006399302
aF8.733648647659727
aF8.733886420758445
aF8.734478850444987
aF8.734778177166646
aF8.735399199344531
aF8.735547060999993
aF8.736300306777828
aF8.736842947686451
aF8.737340141994405
aF8.738321901272755
aF8.73842334467395
aF8.739473860499364
aF8.739723800970955
aF8.7397367363233
aF8.740004363445541
aF8.740013344208153
aF8.74005188017095
aF8.740342990272485
aF8.740480114590437
aF8.740561392932104
aF8.741264815705836
aF8.74146011445789
aF8.741716510374829
aF8.742296901239795
aF8.74263198564067
aF8.74334953907353
aF8.744196167509966
aF8.744554054054552
aF8.746751853284664
aF8.747956667332808
aF8.747962835176438
aF8.748170953791602
aF8.750377741459921
aF8.75050380428399
aF8.750698681262834
aF8.751320838940396
aF8.752185021310883
aF8.752941448258802
aF8.752988771785349
aF8.75309349008339
aF8.753766791354025
aF8.753968004737656
aF8.754157152826407
aF8.754314254877505
aF8.754882319811509
aF8.754915547428201
aF8.755021808910552
aF8.75511802016393
aF8.755996597358372
aF8.756016333497952
aF8.756420133014107
aF8.75669012828561
aF8.756876273687283
aF8.757086520792532
aF8.758284562134827
aF8.758628473056136
aF8.758655744017961
aF8.759103873432487
aF8.759143789686066
aF8.759449825505042
aF8.760165063809486
aF8.760501089491935
aF8.760955195277049
aF8.761659670802906
aF8.762212152011251
aF8.762354411096126
aF8.762698353210318
aF8.764207158317781
aF8.764329767298634
aF8.764905771101027
aF8.765415352958417
aF8.767215451596615
aF8.767298844421752
aF8.767611199647655
aF8.768614745264104
aF8.769202738858082
aF8.769324105740756
aF8.770200991270467
aF8.77090332934139
aF8.771480039316177
aF8.771798542033565
aF8.772085414405028
aF8.772257281080952
aF8.772539644297193
aF8.772814105825331
aF8.77463857744761
aF8.775052984385054
aF8.775500270496916
aF8.775885933234257
aF8.77634575107387
aF8.777113833390132
aF8.778064343060244
aF8.778092040430295
aF8.778177570433442
aF8.778352027440212
aF8.77926362864115
aF8.780781975608672
aF8.781966297120869
aF8.782414218213512
aF8.782906666469241
aF8.783464996759829
aF8.784111498008494
aF8.785211491614142
aF8.785395513036491
aF8.785729800634803
aF8.785967770321685
aF8.78616792855485
aF8.78620655925796
aF8.786498350295792
aF8.787821523220353
aF8.787901789647327
aF8.788230332832413
aF8.788334127823557
aF8.78888778831735
aF8.789061500600182
aF8.78911623252336
aF8.789245260267057
aF8.789433967548867
aF8.79074016921842
aF8.791691024595288
aF8.792188563015575
aF8.79226149959206
aF8.792577124777948
aF8.79280374061314
aF8.79396264036826
aF8.794083536052687
aF8.794631339653192
aF8.79473899578475
aF8.794828308033061
aF8.796815049343495
aF8.797235303172023
aF8.797576680742532
aF8.798213102169944
aF8.799601748570057
aF8.800212349930055
aF8.800485951970009
aF8.801686867296631
aF8.802061364644164
aF8.802740143220845
aF8.802912338715604
aF8.803981929426387
aF8.804110429569903
aF8.804120067891787
aF8.804241862540469
aF8.804249300347003
aF8.801443390039505
aF8.785435705909725
asS'PP04_uy'
p2448
(lp2449
F8.428170599311036
aF8.430856617646548
aF8.446467916226217
aF8.461004662263889
aF8.46139640643085
aF8.464129394996345
aF8.478831705149666
aF8.481038980605973
aF8.488448976689913
aF8.490469179469763
aF8.493880389035699
aF8.515531470477796
aF8.520294004859313
aF8.52666567037074
aF8.530317719624248
aF8.531029023017307
aF8.544930293696494
aF8.546090720642383
aF8.546335921555666
aF8.555392231655611
aF8.557084306400062
aF8.558683213831923
aF8.569686846250281
aF8.574115485727258
aF8.575767308776589
aF8.582089970012916
aF8.587758942938287
aF8.588702223748482
aF8.595461861214677
aF8.60590208188889
aF8.611487979181721
aF8.613036654314138
aF8.61752561699599
aF8.618766725332186
aF8.619722284249454
aF8.622570606015563
aF8.6231582173317
aF8.624556511509166
aF8.624559213797617
aF8.628224490350936
aF8.62978045535317
aF8.633489971124396
aF8.642232825305387
aF8.642233827541546
aF8.643063769512121
aF8.643153915067968
aF8.644532088409328
aF8.645890904236262
aF8.648129529760668
aF8.653746608818933
aF8.656934735726468
aF8.657221452553749
aF8.660201492084088
aF8.66042517096241
aF8.66150442092244
aF8.666098777049108
aF8.66864250495593
aF8.668766102743353
aF8.671137208733377
aF8.672310677257885
aF8.672568084456135
aF8.676675297148533
aF8.676849208182313
aF8.67719629130209
aF8.678369318099241
aF8.678619691369438
aF8.679425766439236
aF8.68092059127584
aF8.682303425598596
aF8.682466664405366
aF8.683675568020494
aF8.68617517421378
aF8.68758112166496
aF8.687823309074199
aF8.68956419767028
aF8.6898791411585
aF8.69026434863414
aF8.690278102980823
aF8.691738055088523
aF8.69361537546342
aF8.694126354196415
aF8.695044338688389
aF8.695607249911944
aF8.695688634737994
aF8.697295663489296
aF8.699363774604551
aF8.699488787119659
aF8.701850647155158
aF8.702331410428023
aF8.702409617936697
aF8.708675877870357
aF8.70945977864348
aF8.709815349291066
aF8.710055531264707
aF8.710248496484049
aF8.710790285420538
aF8.711661763137105
aF8.714494907412558
aF8.715543417822913
aF8.716558227985
aF8.717324895510544
aF8.718128429277625
aF8.719203129487585
aF8.71923119431656
aF8.720625624894915
aF8.721112067352399
aF8.722868541928683
aF8.723255911595192
aF8.724979994944595
aF8.725255808516144
aF8.725628374931441
aF8.727170529924157
aF8.72817178986066
aF8.729287006216556
aF8.729407932477029
aF8.73050647894164
aF8.730644462176333
aF8.731553198982569
aF8.733030657372083
aF8.733212493159362
aF8.733595023064117
aF8.735127632145671
aF8.736669686569371
aF8.736873281130682
aF8.738279172377583
aF8.738475642023236
aF8.740855425565297
aF8.742803422940247
aF8.742875061562884
aF8.744619006042521
aF8.744668196955553
aF8.745370632922217
aF8.748563840807492
aF8.749360479938852
aF8.749413372176926
aF8.752864380457575
aF8.756004309334937
aF8.756793757992078
aF8.757362332604043
aF8.757653184339183
aF8.758554501263216
aF8.76031379636578
aF8.760623675422272
aF8.760624825954066
aF8.761373266697593
aF8.76178953858535
aF8.763328421405088
aF8.763404795889981
aF8.764083346100088
aF8.764656260717102
aF8.765196012000953
aF8.76545725907277
aF8.765927544113667
aF8.766613069015213
aF8.767029985294958
aF8.767222699299136
aF8.768055940701162
aF8.768202930086565
aF8.768384125193466
aF8.770418849329191
aF8.770678334708602
aF8.771338921279252
aF8.772014559087857
aF8.772223735143411
aF8.772334320657041
aF8.772952425805775
aF8.774082104055433
aF8.77417210872534
aF8.774678254105439
aF8.774740783711625
aF8.774935852731758
aF8.776158152592638
aF8.776312820749997
aF8.776351201090018
aF8.776358153697615
aF8.776628384491516
aF8.77697565612735
aF8.777016754634586
aF8.777527382527774
aF8.777596714604654
aF8.778041837110932
aF8.778811807354728
aF8.779169747887686
aF8.779432137510812
aF8.780583887881072
aF8.780850074073728
aF8.78233888662192
aF8.782844736426009
aF8.782880336092232
aF8.782909908861088
aF8.782984652677081
aF8.783140119778466
aF8.783187733422379
aF8.783193753143548
aF8.783300451548794
aF8.783505835625194
aF8.783567348606452
aF8.785714140263472
aF8.786309727232416
aF8.786687210412659
aF8.789130258497197
aF8.78913187577355
aF8.789279020002638
aF8.789351762780079
aF8.789550791937364
aF8.789825061679565
aF8.790338887245774
aF8.790820354008707
aF8.792264815847282
aF8.792445215814046
aF8.792978953490897
aF8.793103532810235
aF8.793796619684016
aF8.79390096242553
aF8.795656988335905
aF8.795736437082121
aF8.795875165404064
aF8.796568002510648
aF8.79669637346186
aF8.797268196424726
aF8.797461673600322
aF8.79839146308543
aF8.798487118062916
aF8.799021147414287
aF8.799586574967472
aF8.800094852632185
aF8.800362038125005
aF8.800937007531132
aF8.801059604886765
aF8.801113325145483
aF8.801357566732237
aF8.801784891492906
aF8.802448890184202
aF8.802780916107025
aF8.803319138983737
aF8.803485148383743
aF8.805245233506191
aF8.80527201602695
aF8.806127632433551
aF8.807567022890105
aF8.80824256793484
aF8.80872694286877
aF8.809286607718944
aF8.81004470599477
aF8.810071592560812
aF8.810636174262369
aF8.810839908083514
aF8.811513915770703
aF8.812478717108236
aF8.812928803580839
aF8.814075577143669
aF8.814079581664453
aF8.814890621632687
aF8.815420764220121
aF8.815860649075084
aF8.81595963651361
aF8.815986242912722
aF8.817928018612387
aF8.81818843515176
aF8.81839437550871
aF8.818675787440124
aF8.81886980111707
aF8.819179253157072
aF8.81977013648904
aF8.819890809645832
aF8.820468176863088
aF8.82084793109833
aF8.820900707438307
aF8.821020149351563
aF8.82156393196563
aF8.821738129867152
aF8.822443507976546
aF8.8225632370771
aF8.823083782407886
aF8.823147991266657
aF8.82372033290364
aF8.823784144869451
aF8.82388925570794
aF8.823900126817108
aF8.82392911428159
aF8.824139901191119
aF8.824176584396124
aF8.82429311576646
aF8.824938759524336
aF8.82889730947566
aF8.828899204320894
aF8.82894870200252
aF8.829267237178325
aF8.829380257602391
aF8.82993136628502
aF8.830419797840301
aF8.830790466272386
aF8.831779465940363
aF8.832647085408539
aF8.83266270768435
aF8.833296042549595
aF8.834610706532922
aF8.834778725658293
aF8.835694739363932
aF8.837153559824166
aF8.837455539301203
aF8.838013854732798
aF8.83841125528011
aF8.839029215524384
aF8.839340809826451
aF8.839825409999968
aF8.840351921287516
aF8.840601974811277
aF8.840876666446889
aF8.84147716121066
aF8.842088869123215
aF8.84278891236525
aF8.842997566580053
aF8.843277509615977
aF8.843989603095483
aF8.844466013018165
aF8.845496864489965
aF8.846478168371156
aF8.846490400375652
aF8.846528838793198
aF8.84656202938841
aF8.846930886912416
aF8.847534000500684
aF8.847952349935856
aF8.8484359327006
aF8.848787764464259
aF8.849050392462328
aF8.849704897969357
aF8.850035667670166
aF8.850571297621745
aF8.850722091152617
aF8.850885556897797
aF8.851718482918564
aF8.852318717205728
aF8.852868817934532
aF8.853955416305263
aF8.854067719729766
aF8.855230985758345
aF8.855507826864528
aF8.855522155180589
aF8.855818618926794
aF8.85582856789111
aF8.855871258812803
aF8.856193777305903
aF8.856345708799372
aF8.856435767621102
aF8.856534238533287
aF8.857215295188729
aF8.857431759141097
aF8.857715964241207
aF8.858359397822406
aF8.85873093590909
aF8.859526683806104
aF8.860465790204305
aF8.860862835200795
aF8.863301857927008
aF8.864348709367917
aF8.864639361643022
aF8.86464620944827
aF8.864877274806654
aF8.865013351530678
aF8.867327718377494
aF8.867467713753198
aF8.867684130487335
aF8.868375066619004
aF8.869334795955574
aF8.870174848470514
aF8.870227403032576
aF8.870343696328574
aF8.871091403902593
aF8.871314846420162
aF8.871524887146498
aF8.871699339342348
aF8.8723301162068
aF8.872367010736065
aF8.87248499777102
aF8.872591824174018
aF8.873567266497405
aF8.873589177007077
aF8.874037446548726
aF8.874337156809053
aF8.87454377922013
aF8.87477714471915
aF8.876106696170446
aF8.876488279859561
aF8.876518536521417
aF8.877015691946239
aF8.877059971709889
aF8.877399443104899
aF8.878192684366706
aF8.87856528464377
aF8.879068739291876
aF8.879849582834023
aF8.880461782843302
aF8.880619393076858
aF8.881000404462364
aF8.881548006926021
aF8.882671008552109
aF8.882806703229633
aF8.883307597255858
aF8.883444047680614
aF8.884007704472403
aF8.88520148002135
aF8.885997250915471
aF8.886089356830698
aF8.886434294724271
aF8.88754193734082
aF8.888190487990096
aF8.8883243126966
aF8.88928610323109
aF8.88929076697837
aF8.889715578922956
aF8.890064265686018
aF8.890699004082434
aF8.891049393054724
aF8.89136488439834
aF8.89155385040268
aF8.891582531654565
aF8.891864229713512
aF8.892165830677076
aF8.893612794958514
aF8.894168278878306
aF8.894622494045693
aF8.895112478114761
aF8.895534727475951
aF8.896037883996602
aF8.896877655473476
aF8.897081347788852
aF8.897915620161223
aF8.897945844468364
aF8.89803916992261
aF8.8982294907575
aF8.89922317380611
aF8.900875102828168
aF8.902160783985197
aF8.902646371054182
aF8.9030260032667
aF8.903179797496179
aF8.903784034288787
aF8.904482947479833
aF8.905670259415496
aF8.905868658343838
aF8.906190315320826
aF8.906228894137588
aF8.906485202335105
aF8.906700699387939
aF8.906742281437161
aF8.907056270943233
aF8.90741221286777
aF8.908478028251574
aF8.908564166452193
aF8.9089166162667
aF8.909027921569228
aF8.909621304011072
aF8.909807362814684
aF8.909865973466724
aF8.910004123691564
aF8.91020611930482
aF8.910974623258298
aF8.911602626931476
aF8.912617539548197
aF8.913148110834637
aF8.913225865057115
aF8.913562271664558
aF8.91373698503701
aF8.913803746825284
aF8.914639705892819
aF8.914855452839845
aF8.91503804357766
aF8.915166768867804
aF8.915750038347774
aF8.915864669216448
aF8.915959770789684
aF8.917879043325149
aF8.918077635945782
aF8.918526787790743
aF8.918892157034758
aF8.919574917015733
aF8.921075917835456
aF8.92174359654588
aF8.922044997665672
aF8.922915667857783
aF8.9233923687089
aF8.923797812610612
aF8.923824517011443
aF8.924632412345456
aF8.924763309568025
aF8.92484449960949
aF8.926305787793849
aF8.926518388893916
aF8.926535082936589
aF8.926577680952077
aF8.92675885644486
aF8.926773486976012
aF8.927075794895632
aF8.92757614793365
aF8.928156744557922
aF8.928262729533037
aF8.928256851416043
aF8.925400683764577
asS'PP04_ux'
p2450
(lp2451
F8.543773
aF8.55359
aF8.60835
aF8.656636
aF8.657909
aF8.666754
aF8.713383
aF8.720263000000001
aF8.743167
aF8.749364
aF8.759786
aF8.824925
aF8.839068
aF8.857911
aF8.868675999999999
aF8.87077
aF8.91155
aF8.914944
aF8.915661
aF8.942110000000001
aF8.947046
aF8.951709
aF8.98378
aF8.996685000000001
aF9.001499
aF9.019932
aF9.036472999999999
aF9.039227
aF9.05898
aF9.089564999999999
aF9.105977000000001
aF9.110534
aF9.123761
aF9.127423
aF9.130244
aF9.138661
aF9.140399
aF9.144537
aF9.144544999999999
aF9.155407
aF9.160025
aF9.171052
aF9.197144999999999
aF9.197148
aF9.199633
aF9.199902999999999
aF9.204033
aF9.208109
aF9.214833
aF9.231755
aF9.241392999999999
aF9.242261
aF9.251294999999999
aF9.251974
aF9.255252
aF9.269241000000001
aF9.277011
aF9.277389
aF9.284649
aF9.288248
aF9.289038
aF9.30167
aF9.302206
aF9.303276
aF9.306894999999999
aF9.307668
aF9.310158
aF9.314781
aF9.319064
aF9.31957
aF9.323319999999999
aF9.331089
aF9.335467999999999
aF9.336223
aF9.341656
aF9.34264
aF9.343844
aF9.343886999999999
aF9.348455
aF9.354339999999999
aF9.355944000000001
aF9.358827999999999
aF9.360598
aF9.360854
aF9.365914
aF9.37244
aF9.372835
aF9.380309
aF9.381833
aF9.382081
aF9.402031
aF9.404538
aF9.405676
aF9.406445
aF9.407063
aF9.408799
aF9.411594000000001
aF9.420703
aF9.424083
aF9.427359
aF9.429837
aF9.432437
aF9.435919
aF9.436010000000001
aF9.440536
aF9.442117
aF9.447835000000001
aF9.449098
aF9.454728
aF9.455630000000001
aF9.456849
aF9.461902
aF9.465189
aF9.468856
aF9.469254
aF9.472873
aF9.473328
aF9.476327000000001
aF9.481212
aF9.481814
aF9.483081
aF9.488164999999999
aF9.493293
aF9.493971
aF9.498659
aF9.499315
aF9.507278
aF9.513819999999999
aF9.514061
aF9.519936999999999
aF9.520103
aF9.522475
aF9.533294999999999
aF9.536004
aF9.536184
aF9.547966
aF9.558752
aF9.561474
aF9.563437
aF9.564442
aF9.56756
aF9.573661999999999
aF9.574739
aF9.574743
aF9.577347
aF9.578797
aF9.584168
aF9.584435000000001
aF9.586808999999999
aF9.588816
aF9.590709
aF9.591626
aF9.593278
aF9.595689
aF9.597157000000001
aF9.597836000000001
aF9.600775
aF9.601294000000001
aF9.601934
aF9.609138
aF9.610059
aF9.612406
aF9.61481
aF9.615555
aF9.615949
aF9.618153
aF9.622189
aF9.622511
aF9.624323
aF9.624547
aF9.625246
aF9.629633
aF9.630189
aF9.630327000000001
aF9.630352
aF9.631324000000001
aF9.632574
aF9.632722
aF9.634561999999999
aF9.634812
aF9.636417999999999
aF9.6392
aF9.640495
aF9.641445
aF9.645622
aF9.646589
aF9.652009
aF9.653855
aF9.653985
aF9.654093
aF9.654366
aF9.654933999999999
aF9.655108
aF9.65513
aF9.65552
aF9.656271
aF9.656496
aF9.66437
aF9.666561999999999
aF9.667953
aF9.676988
aF9.676994
aF9.677539999999999
aF9.677810000000001
aF9.678549
aF9.679568
aF9.681479
aF9.683272
aF9.688665
aF9.68934
aF9.691339
aF9.691806
aF9.694407
aF9.694799
aF9.701413
aF9.701713
aF9.702237
aF9.704857
aF9.705343
aF9.707510000000001
aF9.708244
aF9.711777
aF9.712141
aF9.714175
aF9.716332000000001
aF9.718274000000001
aF9.719296
aF9.721498
aF9.721967999999999
aF9.722174
aF9.723111
aF9.724752
aF9.727306
aF9.728585
aF9.730661
aF9.731302000000001
aF9.738118
aF9.738222
aF9.741549000000001
aF9.747166
aF9.749811
aF9.751711
aF9.753910000000001
aF9.756895
aF9.757000999999999
aF9.759229
aF9.760034
aF9.762701
aF9.766529
aF9.768319
aF9.772892
aF9.772908000000001
aF9.776153
aF9.778279
aF9.780046
aF9.780444000000001
aF9.780550999999999
aF9.788387
aF9.789442
aF9.790277
aF9.791419
aF9.792207000000001
aF9.793465
aF9.795871
aF9.796363000000001
aF9.79872
aF9.800272999999999
aF9.800489
aF9.800978
aF9.803207
aF9.803922
aF9.806822
aF9.807315
aF9.809461
aF9.809726
aF9.812091
aF9.812355
aF9.81279
aF9.812835
aF9.812955
aF9.813827999999999
aF9.81398
aF9.814463
aF9.817143
aF9.833724
aF9.833732000000001
aF9.833941000000001
aF9.835287
aF9.835764999999999
aF9.838099
aF9.840172
aF9.841747999999999
aF9.845965
aF9.849679
aF9.849746000000001
aF9.852466
aF9.858136
aF9.858863000000001
aF9.862836
aF9.869197
aF9.870519
aF9.872968
aF9.874715
aF9.877438
aF9.878814
aF9.880958
aF9.883293
aF9.884404
aF9.885626
aF9.888303
aF9.891038
aF9.894178
aF9.895116
aF9.896376
aF9.899589
aF9.901745
aF9.906428
aF9.910909
aF9.910965
aF9.911141
aF9.911292999999999
aF9.912984
aF9.915756
aF9.917684
aF9.919918
aF9.921547
aF9.922765
aF9.925808
aF9.92735
aF9.929853
aF9.930558999999999
aF9.931325
aF9.935239
aF9.938071
aF9.940675
aF9.945843
aF9.946378999999999
aF9.951952
aF9.953284
aF9.953353
aF9.954782000000002
aF9.954830000000001
aF9.955036
aF9.956594
aF9.957329
aF9.957765
aF9.958242
aF9.961549
aF9.962603
aF9.963989
aF9.967136
aF9.968959
aF9.972878
aF9.977528999999999
aF9.979503999999999
aF9.991752
aF9.997072
aF9.998555999999999
aF9.998591000000001
aF9.999773
aF10.00047
aF10.01243
aF10.013160000000001
aF10.014289999999999
aF10.01791
aF10.022969999999999
aF10.02743
aF10.02771
aF10.02833
aF10.03233
aF10.03353
aF10.03466
aF10.0356
aF10.039010000000001
aF10.03921
aF10.03985
aF10.04043
aF10.04575
aF10.045869999999999
aF10.04833
aF10.04998
aF10.05112
aF10.05241
aF10.05981
aF10.06195
aF10.06212
aF10.064919999999999
aF10.06517
aF10.067089999999999
aF10.0716
aF10.07373
aF10.07662
aF10.08113
aF10.08469
aF10.08561
aF10.08784
aF10.09106
aF10.097719999999999
aF10.09853
aF10.10153
aF10.10235
aF10.10575
aF10.11302
aF10.11792
aF10.11849
aF10.12063
aF10.12756
aF10.13166
aF10.13251
aF10.13866
aF10.138689999999999
aF10.14143
aF10.14369
aF10.14783
aF10.15013
aF10.15221
aF10.15346
aF10.15365
aF10.15552
aF10.15753
aF10.16729
aF10.17109
aF10.17422
aF10.17762
aF10.18057
aF10.18411
aF10.19008
aF10.19154
aF10.197569999999999
aF10.19779
aF10.19847
aF10.199860000000001
aF10.207189999999999
aF10.219660000000001
aF10.22963
aF10.233460000000001
aF10.23648
aF10.23771
aF10.24258
aF10.248289999999999
aF10.258189999999999
aF10.25987
aF10.26261
aF10.262939999999999
aF10.265139999999999
aF10.267000000000001
aF10.26736
aF10.27009
aF10.27321
aF10.28272
aF10.2835
aF10.286710000000001
aF10.28773
aF10.29322
aF10.294960000000001
aF10.29551
aF10.29681
aF10.29872
aF10.30609
aF10.31224
aF10.32244
aF10.327910000000001
aF10.32872
aF10.33225
aF10.3341
aF10.334810000000001
aF10.34385
aF10.34623
aF10.34826
aF10.3497
aF10.35632
aF10.35764
aF10.35874
aF10.38198
aF10.38451
aF10.39033
aF10.39517
aF10.40449
aF10.42645
aF10.437000000000001
aF10.44195
aF10.45701
aF10.465810000000001
aF10.47366
aF10.47419
aF10.4911
aF10.494019999999999
aF10.49586
aF10.534
aF10.54066
aF10.5412
aF10.542589999999999
aF10.54871
aF10.54922
aF10.56038
aF10.582510000000001
aF10.622110000000001
aF10.634960000000001
aF10.697280000000001
aF10.853069999999999
asS'M13_lx'
p2452
(lp2453
F8.543773
aF8.55359
aF8.60835
aF8.656636
aF8.666754
aF8.713383
aF8.720263000000001
aF8.743167
aF8.749364
aF8.759786
aF8.824925
aF8.839068
aF8.857911
aF8.868675999999999
aF8.87077
aF8.91155
aF8.914944
aF8.915661
aF8.947046
aF8.951709
aF8.98378
aF8.996685000000001
aF9.001499
aF9.019932
aF9.036472999999999
aF9.039227
aF9.05898
aF9.089564999999999
aF9.105977000000001
aF9.110534
aF9.123761
aF9.127423
aF9.130244
aF9.138661
aF9.140399
aF9.144537
aF9.144544999999999
aF9.155407
aF9.160025
aF9.171052
aF9.197144999999999
aF9.197148
aF9.199633
aF9.199902999999999
aF9.204033
aF9.208109
aF9.214833
aF9.231755
aF9.241392999999999
aF9.242261
aF9.251294999999999
aF9.251974
aF9.255252
aF9.269241000000001
aF9.277011
aF9.277389
aF9.284649
aF9.288248
aF9.289038
aF9.30167
aF9.302206
aF9.303276
aF9.306894999999999
aF9.307668
aF9.310158
aF9.314781
aF9.319064
aF9.31957
aF9.323319999999999
aF9.331089
aF9.335467999999999
aF9.336223
aF9.341656
aF9.34264
aF9.343844
aF9.343886999999999
aF9.348455
aF9.354339999999999
aF9.355944000000001
aF9.358827999999999
aF9.360598
aF9.360854
aF9.365914
aF9.37244
aF9.372835
aF9.380309
aF9.381833
aF9.382081
aF9.402031
aF9.404538
aF9.405676
aF9.406445
aF9.407063
aF9.408799
aF9.411594000000001
aF9.420703
aF9.424083
aF9.427359
aF9.429837
aF9.432437
aF9.435919
aF9.436010000000001
aF9.440536
aF9.442117
aF9.447835000000001
aF9.449098
aF9.454728
aF9.455630000000001
aF9.456849
aF9.461902
aF9.465189
aF9.468856
aF9.469254
aF9.472873
aF9.473328
aF9.476327000000001
aF9.481212
aF9.481814
aF9.483081
aF9.488164999999999
aF9.493293
aF9.493971
aF9.498659
aF9.499315
aF9.507278
aF9.513819999999999
aF9.514061
aF9.519936999999999
aF9.520103
aF9.522475
aF9.533294999999999
aF9.536004
aF9.536184
aF9.547966
aF9.558752
aF9.561474
aF9.563437
aF9.564442
aF9.56756
aF9.573661999999999
aF9.574739
aF9.574743
aF9.577347
aF9.578797
aF9.584168
aF9.584435000000001
aF9.586808999999999
aF9.588816
aF9.590709
aF9.591626
aF9.593278
aF9.595689
aF9.597157000000001
aF9.597836000000001
aF9.600775
aF9.601294000000001
aF9.601934
aF9.609138
aF9.610059
aF9.612406
aF9.61481
aF9.615555
aF9.615949
aF9.618153
aF9.622189
aF9.622511
aF9.624323
aF9.624547
aF9.625246
aF9.629633
aF9.630189
aF9.630327000000001
aF9.630352
aF9.631324000000001
aF9.632574
aF9.632722
aF9.634561999999999
aF9.634812
aF9.636417999999999
aF9.6392
aF9.640495
aF9.641445
aF9.645622
aF9.646589
aF9.652009
aF9.653855
aF9.653985
aF9.654093
aF9.654366
aF9.654933999999999
aF9.655108
aF9.65513
aF9.65552
aF9.656271
aF9.656496
aF9.66437
aF9.666561999999999
aF9.667953
aF9.676988
aF9.676994
aF9.677539999999999
aF9.677810000000001
aF9.678549
aF9.679568
aF9.681479
aF9.683272
aF9.688665
aF9.68934
aF9.691339
aF9.691806
aF9.694407
aF9.694799
aF9.701413
aF9.701713
aF9.702237
aF9.704857
aF9.705343
aF9.707510000000001
aF9.708244
aF9.711777
aF9.712141
aF9.714175
aF9.716332000000001
aF9.718274000000001
aF9.719296
aF9.721498
aF9.721967999999999
aF9.722174
aF9.723111
aF9.724752
aF9.727306
aF9.728585
aF9.730661
aF9.731302000000001
aF9.738118
aF9.738222
aF9.741549000000001
aF9.747166
aF9.749811
aF9.751711
aF9.753910000000001
aF9.756895
aF9.757000999999999
aF9.759229
aF9.760034
aF9.762701
aF9.766529
aF9.768319
aF9.772892
aF9.772908000000001
aF9.776153
aF9.778279
aF9.780046
aF9.780444000000001
aF9.780550999999999
aF9.788387
aF9.789442
aF9.790277
aF9.791419
aF9.792207000000001
aF9.793465
aF9.795871
aF9.796363000000001
aF9.79872
aF9.800272999999999
aF9.800489
aF9.800978
aF9.803207
aF9.803922
aF9.806822
aF9.807315
aF9.809461
aF9.809726
aF9.812091
aF9.812355
aF9.81279
aF9.812835
aF9.812955
aF9.813827999999999
aF9.81398
aF9.814463
aF9.833724
aF9.833732000000001
aF9.833941000000001
aF9.835287
aF9.835764999999999
aF9.838099
aF9.840172
aF9.841747999999999
aF9.845965
aF9.849679
aF9.849746000000001
aF9.852466
aF9.858136
aF9.858863000000001
aF9.862836
aF9.869197
aF9.870519
aF9.872968
aF9.874715
aF9.877438
aF9.878814
aF9.880958
aF9.883293
aF9.885626
aF9.888303
aF9.891038
aF9.894178
aF9.895116
aF9.896376
aF9.899589
aF9.901745
aF9.906428
aF9.910909
aF9.910965
aF9.911141
aF9.911292999999999
aF9.912984
aF9.915756
aF9.917684
aF9.919918
aF9.921547
aF9.922765
aF9.925808
aF9.92735
aF9.930558999999999
aF9.931325
aF9.935239
aF9.938071
aF9.940675
aF9.945843
aF9.946378999999999
aF9.951952
aF9.953284
aF9.953353
aF9.954782000000002
aF9.954830000000001
aF9.955036
aF9.956594
aF9.957329
aF9.957765
aF9.961549
aF9.962603
aF9.963989
aF9.967136
aF9.968959
aF9.972878
aF9.977528999999999
aF9.979503999999999
aF9.991752
aF9.998555999999999
aF9.998591000000001
aF9.999773
aF10.01243
aF10.013160000000001
aF10.014289999999999
aF10.01791
aF10.022969999999999
aF10.02743
aF10.02771
aF10.02833
aF10.03233
aF10.03353
aF10.03466
aF10.0356
aF10.039010000000001
aF10.03921
aF10.03985
aF10.04043
aF10.04575
aF10.045869999999999
aF10.04833
aF10.04998
aF10.05112
aF10.05241
aF10.05981
aF10.06195
aF10.06212
aF10.064919999999999
aF10.06517
aF10.067089999999999
aF10.0716
aF10.07373
aF10.07662
aF10.08113
aF10.08469
aF10.08561
aF10.08784
aF10.097719999999999
aF10.09853
aF10.10235
aF10.10575
aF10.11792
aF10.11849
aF10.12063
aF10.12756
aF10.13166
aF10.13251
aF10.138689999999999
aF10.14369
aF10.14783
aF10.15013
aF10.15221
aF10.15346
aF10.15552
aF10.15753
aF10.17109
aF10.17422
aF10.17762
aF10.18057
aF10.18411
aF10.19008
aF10.197569999999999
aF10.19779
aF10.19847
aF10.199860000000001
aF10.207189999999999
aF10.219660000000001
aF10.22963
aF10.233460000000001
aF10.23771
aF10.24258
aF10.248289999999999
aF10.258189999999999
aF10.25987
aF10.262939999999999
aF10.265139999999999
aF10.267000000000001
aF10.26736
aF10.27009
aF10.28272
aF10.2835
aF10.286710000000001
aF10.28773
aF10.29322
aF10.294960000000001
aF10.29551
aF10.29681
aF10.29872
aF10.31224
aF10.32244
aF10.327910000000001
aF10.32872
aF10.33225
aF10.334810000000001
aF10.34826
aF10.3497
aF10.35632
aF10.35764
aF10.35874
aF10.38451
aF10.39033
aF10.39517
aF10.40449
aF10.42645
aF10.437000000000001
aF10.44195
aF10.465810000000001
aF10.47419
aF10.4911
aF10.49586
aF10.534
aF10.54066
aF10.5412
aF10.54871
aF10.54922
aF10.697280000000001
aF10.853069999999999
asS'M13_ly'
p2454
(lp2455
F8.081856195676654
aF8.084193507306699
aF8.097052203800354
aF8.108183504140845
aF8.11049632424036
aF8.121085056564306
aF8.122639040394256
aF8.127799647172377
aF8.129192872849316
aF8.13153335424868
aF8.146102737951018
aF8.149255881560796
aF8.153452816892317
aF8.155848711830389
aF8.15631462065591
aF8.165380212147992
aF8.166134108624945
aF8.166293362161168
aF8.173260668809142
aF8.174295229548898
aF8.181406308536692
aF8.184265398560099
aF8.185331559088098
aF8.189411870126495
aF8.19307028851524
aF8.193679085932958
aF8.198042768389278
aF8.204787765852359
aF8.208400242128894
aF8.209402320939477
aF8.2123083292922
aF8.21311216431786
aF8.213731172344165
aF8.215576918237034
aF8.215957813147694
aF8.216864361810229
aF8.21686611399721
aF8.219243503364204
aF8.220253229344431
aF8.222661671360406
aF8.22834480442487
aF8.228345456447714
aF8.228885439446747
aF8.228944095765327
aF8.229840977188811
aF8.230725491135274
aF8.23218320779892
aF8.235843535687568
aF8.237922721556146
aF8.238109766190766
aF8.240054400381327
aF8.240200403104033
aF8.240904943783605
aF8.243905579586693
aF8.24556787255997
aF8.245648658737828
aF8.247198755998417
aF8.247966104784023
aF8.248134444583618
aF8.25082130353873
aF8.25093510551874
aF8.25116223362264
aF8.251929926717079
aF8.25209379945276
aF8.252621421224955
aF8.253600005314794
aF8.254505427880481
aF8.254612319294997
aF8.255403989254786
aF8.257041219612193
aF8.25796228921452
aF8.258120964407604
aF8.259261654766632
aF8.259468035371265
aF8.259720467070256
aF8.259729480641044
aF8.260686281001185
aF8.261916768860997
aF8.262251718378153
aF8.262853491787785
aF8.263222519126462
aF8.263275873620696
aF8.264329467237996
aF8.265685490211062
aF8.265767463071745
aF8.267316257821927
aF8.26763153654112
aF8.267682824549798
aF8.27179250694278
aF8.272306645117126
aF8.272539853836962
aF8.272697382328374
aF8.272823942605854
aF8.273179285604778
aF8.273750858632711
aF8.275608973621681
aF8.276296608349082
aF8.276962120621699
aF8.27746488503442
aF8.277991808941943
aF8.278696522777317
aF8.278714925249107
aF8.279629237471399
aF8.279948175404177
aF8.28109973382909
aF8.28135367800334
aF8.282483829396533
aF8.282664613242048
aF8.28290880774106
aF8.283919511051822
aF8.284575642633285
aF8.28530637284967
aF8.285385603003325
aF8.286105315933534
aF8.286195709423422
aF8.286790991108868
aF8.287758682411168
aF8.28787776699267
aF8.288128277198126
aF8.28913181899728
aF8.29014132557247
aF8.290274591548894
aF8.291194724807823
aF8.29132329471236
aF8.292880291586922
aF8.294154300787499
aF8.294201144353579
aF8.295341285449288
aF8.295373439318361
aF8.295832555017727
aF8.29791878750141
aF8.298439027543683
aF8.298473565068706
aF8.300726045385657
aF8.302773743927313
aF8.303288303092566
aF8.303658825585826
aF8.303848341050806
aF8.304435525246168
aF8.305581200068334
aF8.305782932691711
aF8.305783681665543
aF8.306270838279307
aF8.306541737297438
aF8.307542883217517
aF8.307592556596406
aF8.308033824394409
aF8.308406316890716
aF8.308757180161386
aF8.30892697908233
aF8.309232603984555
aF8.30967801550209
aF8.309948848076509
aF8.310074022957659
aF8.310615142162193
aF8.31071058188329
aF8.310828224083508
aF8.312148727250861
aF8.312317054441552
aF8.312745496679437
aF8.31318358413383
aF8.313319190862597
aF8.313390877713436
aF8.313791503551654
aF8.314523441665578
aF8.31458174237899
aF8.314909557611132
aF8.31495005128139
aF8.315076369418398
aF8.31586763497796
aF8.315967730573243
aF8.315992567877881
aF8.315997067100493
aF8.316171930737555
aF8.316396615943352
aF8.31642320443902
aF8.316753511928821
aF8.316798354615448
aF8.317086217844674
aF8.317584023793653
aF8.317815381534393
aF8.31798495472029
aF8.318729042699577
aF8.318900954229738
aF8.319862068172199
aF8.32018846327603
aF8.32021143054992
aF8.32023050922512
aF8.320278728478542
aF8.320379018720638
aF8.320409732225825
aF8.320413615230425
aF8.320482438894054
aF8.320614907382481
aF8.320654579306172
aF8.32203833951111
aF8.322421963597002
aF8.322665041823551
aF8.324237027632975
aF8.324238067588398
aF8.324332680210778
aF8.324379450401208
aF8.324507407008895
aF8.324683712560795
aF8.325013935169492
aF8.325323273635501
aF8.326250811021607
aF8.326366596703508
aF8.326709091606695
aF8.326789017384684
aF8.327233568593998
aF8.327300478681897
aF8.328425892722873
aF8.328476781366051
aF8.328565633805205
aF8.32900926428879
aF8.32909144008769
aF8.329457406631947
aF8.329581201491386
aF8.33017590323232
aF8.330237064515185
aF8.330578449070993
aF8.330939773357095
aF8.331264460389693
aF8.331435093391217
aF8.331802181587358
aF8.331880434974758
aF8.331914722295508
aF8.332070595242943
aF8.332343246992847
aF8.332766745864562
aF8.332978438136507
aF8.333321491164744
aF8.333427275805812
aF8.334548058208934
aF8.334565101567845
aF8.335109404684562
aF8.336024287715393
aF8.336453320074952
aF8.336760803659661
aF8.337115936325096
aF8.33759673309567
aF8.337613779610848
aF8.337971648208205
aF8.3381007478968
aF8.338527692680602
aF8.339138426497852
aF8.339423170231335
aF8.340148178429523
aF8.340150708918282
aF8.340663029460405
aF8.340997716650113
aF8.341275304533035
aF8.34133775535379
aF8.341354540302135
aF8.342578450766847
aF8.34274242837662
aF8.342872075884278
aF8.34304919575168
aF8.343171280433163
aF8.34336595991822
aF8.343737533549222
aF8.343813392669551
aF8.344176224133648
aF8.344414761416022
aF8.344447905230528
aF8.34452290910957
aF8.344864268913279
aF8.344973583438138
aF8.345416038234816
aF8.345491108727373
aF8.345817387860613
aF8.345857622333254
aF8.346216147241263
aF8.346256107312295
aF8.346321923703144
aF8.34632873038638
aF8.34634687976901
aF8.346478839869272
aF8.34650180193596
aF8.346574739739486
aF8.349449367880942
aF8.34945054797476
aF8.349481373690198
aF8.349679707212445
aF8.349750061455243
aF8.350092993084914
aF8.35039674344262
aF8.350627144409053
aF8.351241403360673
aF8.351779684410882
aF8.35178937154925
aF8.352181939026378
aF8.352995854464012
aF8.353099780564877
aF8.353665983151608
aF8.354566334868785
aF8.354752496350256
aF8.355096485693064
aF8.355341176096433
aF8.355721410773283
aF8.355913015419693
aF8.35621084131775
aF8.35653419820498
aF8.356856233048234
aF8.3572244613022
aF8.35759923925652
aF8.358027728782247
aF8.358155358580191
aF8.358326532312578
aF8.358761625188437
aF8.359052452450545
aF8.359681012669933
aF8.360278418505859
aF8.360285859343598
aF8.360309240718587
aF8.360329428802057
aF8.360553712655019
aF8.36092014681845
aF8.361174110841697
aF8.361467455897346
aF8.361680730431434
aF8.3618398484663
aF8.36223608241715
aF8.362436158460108
aF8.36285099359141
aF8.362949708916252
aF8.363452256456508
aF8.36381393894776
aF8.364145061438972
aF8.364798114352771
aF8.364865532405448
aF8.365562999680925
aF8.365728751749593
aF8.365737328016777
aF8.36591472181535
aF8.36592067312863
aF8.365946208681072
aF8.36613905173489
aF8.366229852108198
aF8.366283661587406
aF8.36674900585221
aF8.36687809149963
aF8.367047484315941
aF8.367430607038091
aF8.367651591894344
aF8.368124284798988
aF8.368681055216861
aF8.368916093727282
aF8.370355084222119
aF8.37114052371066
aF8.37114453810396
aF8.371279953839066
aF8.37271088262807
aF8.372792340121034
aF8.372918200064893
aF8.373319497599871
aF8.373875557834799
aF8.37436095286019
aF8.374391277745923
aF8.374458363249806
aF8.374889099927753
aF8.3750176195273
aF8.375138345547489
aF8.375238553061308
aF8.375600395567002
aF8.37562153628464
aF8.375689125639692
aF8.375750298237355
aF8.376307830666303
aF8.376320332223564
aF8.376575889090617
aF8.376746523331246
aF8.376864051519235
aF8.376996684157886
aF8.377750115301497
aF8.37796563877157
aF8.37798271423291
aF8.378262990441566
aF8.378287926361889
aF8.378478948533562
aF8.378924262793094
aF8.37913291967286
aF8.379414320512105
aF8.379849522781328
aF8.380189648689244
aF8.38027705643852
aF8.380488088254898
aF8.381408738997965
aF8.381483175923934
aF8.381832085579541
aF8.382139656461224
aF8.38321743641053
aF8.383267023666614
aF8.383452476893284
aF8.384045240975729
aF8.38439030444603
aF8.38446131549067
aF8.384972148635997
aF8.385378388428819
aF8.385709951333387
aF8.385892264488849
aF8.38605597371094
aF8.38615382311047
aF8.386314203119976
aF8.386469637545558
aF8.387490883208951
aF8.387719795594208
aF8.387965534362815
aF8.388176276086874
aF8.388426121673112
aF8.388839911121432
aF8.389345539059883
aF8.389360161984433
aF8.389405277408827
aF8.389497109149657
aF8.389972689073947
aF8.390747927326915
aF8.391336718159915
aF8.391555494804493
aF8.391793413137881
aF8.392059733629337
aF8.392363359906904
aF8.392867519216223
aF8.392950249747985
aF8.393099300091869
aF8.39320441303322
aF8.39329217164341
aF8.393309039542327
aF8.393435709821086
aF8.393992918346505
aF8.394025765686731
aF8.394159015435395
aF8.394200704949048
aF8.394419672742266
aF8.39448715764467
aF8.394508296673745
aF8.39455789387102
aF8.394629824109762
aF8.395106778716267
aF8.395428825151955
aF8.395587964866355
aF8.39561071919361
aF8.395707428944098
aF8.395775058657607
aF8.39609545720477
aF8.39612625426984
aF8.396259021952876
aF8.396283756368305
aF8.396303924819112
aF8.396659455788253
aF8.396708197946955
aF8.396739718868172
aF8.396777130228749
aF8.396741854136428
aF8.396661956022355
aF8.396610113276356
aF8.396228942718682
aF8.396042454235028
aF8.395580652091782
aF8.39542970489643
aF8.393876834020155
aF8.393541328814647
aF8.393513266122879
aF8.393109511500244
aF8.393081176699576
aF8.379469257360745
aF8.351395638111978
as.